
obj/UNITTEST_rpi_protocol_client.elf:     file format elf32-littlearm

Sections:
Idx Name          Size      VMA       LMA       File off  Algn
  0 .interp       00000019  00010154  00010154  00000154  2**0
                  CONTENTS, ALLOC, LOAD, READONLY, DATA
  1 .note.ABI-tag 00000020  00010170  00010170  00000170  2**2
                  CONTENTS, ALLOC, LOAD, READONLY, DATA
  2 .note.gnu.build-id 00000024  00010190  00010190  00000190  2**2
                  CONTENTS, ALLOC, LOAD, READONLY, DATA
  3 .gnu.hash     000000b0  000101b4  000101b4  000001b4  2**2
                  CONTENTS, ALLOC, LOAD, READONLY, DATA
  4 .dynsym       00000170  00010264  00010264  00000264  2**2
                  CONTENTS, ALLOC, LOAD, READONLY, DATA
  5 .dynstr       0000012e  000103d4  000103d4  000003d4  2**0
                  CONTENTS, ALLOC, LOAD, READONLY, DATA
  6 .gnu.version  0000002e  00010502  00010502  00000502  2**1
                  CONTENTS, ALLOC, LOAD, READONLY, DATA
  7 .gnu.version_r 00000040  00010530  00010530  00000530  2**2
                  CONTENTS, ALLOC, LOAD, READONLY, DATA
  8 .rel.dyn      00000008  00010570  00010570  00000570  2**2
                  CONTENTS, ALLOC, LOAD, READONLY, DATA
  9 .rel.plt      00000068  00010578  00010578  00000578  2**2
                  CONTENTS, ALLOC, LOAD, READONLY, DATA
 10 .init         0000000c  000105e0  000105e0  000005e0  2**2
                  CONTENTS, ALLOC, LOAD, READONLY, CODE
 11 .plt          000000b0  000105ec  000105ec  000005ec  2**2
                  CONTENTS, ALLOC, LOAD, READONLY, CODE
 12 .text         00004984  000106a0  000106a0  000006a0  2**3
                  CONTENTS, ALLOC, LOAD, READONLY, CODE
 13 .fini         00000008  00015024  00015024  00005024  2**2
                  CONTENTS, ALLOC, LOAD, READONLY, CODE
 14 .rodata       00000a95  0001502c  0001502c  0000502c  2**2
                  CONTENTS, ALLOC, LOAD, READONLY, DATA
 15 .ARM.exidx    00000008  00015ac4  00015ac4  00005ac4  2**2
                  CONTENTS, ALLOC, LOAD, READONLY, DATA
 16 .eh_frame     00000004  00015acc  00015acc  00005acc  2**2
                  CONTENTS, ALLOC, LOAD, READONLY, DATA
 17 .init_array   00000004  00025f00  00025f00  00005f00  2**2
                  CONTENTS, ALLOC, LOAD, DATA
 18 .fini_array   00000004  00025f04  00025f04  00005f04  2**2
                  CONTENTS, ALLOC, LOAD, DATA
 19 .dynamic      000000f8  00025f08  00025f08  00005f08  2**2
                  CONTENTS, ALLOC, LOAD, DATA
 20 .got          00000044  00026000  00026000  00006000  2**2
                  CONTENTS, ALLOC, LOAD, DATA
 21 .data         00000180  00026044  00026044  00006044  2**2
                  CONTENTS, ALLOC, LOAD, DATA
 22 .bss          00000244  000261c4  000261c4  000061c4  2**2
                  ALLOC
 23 .comment      00000023  00000000  00000000  000061c4  2**0
                  CONTENTS, READONLY
 24 .ARM.attributes 0000002f  00000000  00000000  000061e7  2**0
                  CONTENTS, READONLY

Disassembly of section .init:

000105e0 <_init>:
   105e0:	e92d4008 	push	{r3, lr}
   105e4:	eb0004dd 	bl	11960 <call_weak_fn>
   105e8:	e8bd8008 	pop	{r3, pc}

Disassembly of section .plt:

000105ec <.plt>:
   105ec:	e52de004 	push	{lr}		; (str lr, [sp, #-4]!)
   105f0:	e59fe004 	ldr	lr, [pc, #4]	; 105fc <.plt+0x10>
   105f4:	e08fe00e 	add	lr, pc, lr
   105f8:	e5bef008 	ldr	pc, [lr, #8]!
   105fc:	00015a04 	.word	0x00015a04

00010600 <printf@plt>:
   10600:	e28fc600 	add	ip, pc, #0, 12
   10604:	e28cca15 	add	ip, ip, #86016	; 0x15000
   10608:	e5bcfa04 	ldr	pc, [ip, #2564]!	; 0xa04

0001060c <digitalRead@plt>:
   1060c:	e28fc600 	add	ip, pc, #0, 12
   10610:	e28cca15 	add	ip, ip, #86016	; 0x15000
   10614:	e5bcf9fc 	ldr	pc, [ip, #2556]!	; 0x9fc

00010618 <digitalWrite@plt>:
   10618:	e28fc600 	add	ip, pc, #0, 12
   1061c:	e28cca15 	add	ip, ip, #86016	; 0x15000
   10620:	e5bcf9f4 	ldr	pc, [ip, #2548]!	; 0x9f4

00010624 <usleep@plt>:
   10624:	e28fc600 	add	ip, pc, #0, 12
   10628:	e28cca15 	add	ip, ip, #86016	; 0x15000
   1062c:	e5bcf9ec 	ldr	pc, [ip, #2540]!	; 0x9ec

00010630 <puts@plt>:
   10630:	e28fc600 	add	ip, pc, #0, 12
   10634:	e28cca15 	add	ip, ip, #86016	; 0x15000
   10638:	e5bcf9e4 	ldr	pc, [ip, #2532]!	; 0x9e4

0001063c <__libc_start_main@plt>:
   1063c:	e28fc600 	add	ip, pc, #0, 12
   10640:	e28cca15 	add	ip, ip, #86016	; 0x15000
   10644:	e5bcf9dc 	ldr	pc, [ip, #2524]!	; 0x9dc

00010648 <__gmon_start__@plt>:
   10648:	e28fc600 	add	ip, pc, #0, 12
   1064c:	e28cca15 	add	ip, ip, #86016	; 0x15000
   10650:	e5bcf9d4 	ldr	pc, [ip, #2516]!	; 0x9d4

00010654 <putchar@plt>:
   10654:	e28fc600 	add	ip, pc, #0, 12
   10658:	e28cca15 	add	ip, ip, #86016	; 0x15000
   1065c:	e5bcf9cc 	ldr	pc, [ip, #2508]!	; 0x9cc

00010660 <pinMode@plt>:
   10660:	e28fc600 	add	ip, pc, #0, 12
   10664:	e28cca15 	add	ip, ip, #86016	; 0x15000
   10668:	e5bcf9c4 	ldr	pc, [ip, #2500]!	; 0x9c4

0001066c <wiringPiSetup@plt>:
   1066c:	e28fc600 	add	ip, pc, #0, 12
   10670:	e28cca15 	add	ip, ip, #86016	; 0x15000
   10674:	e5bcf9bc 	ldr	pc, [ip, #2492]!	; 0x9bc

00010678 <pullUpDnControl@plt>:
   10678:	e28fc600 	add	ip, pc, #0, 12
   1067c:	e28cca15 	add	ip, ip, #86016	; 0x15000
   10680:	e5bcf9b4 	ldr	pc, [ip, #2484]!	; 0x9b4

00010684 <clock_gettime@plt>:
   10684:	e28fc600 	add	ip, pc, #0, 12
   10688:	e28cca15 	add	ip, ip, #86016	; 0x15000
   1068c:	e5bcf9ac 	ldr	pc, [ip, #2476]!	; 0x9ac

00010690 <abort@plt>:
   10690:	e28fc600 	add	ip, pc, #0, 12
   10694:	e28cca15 	add	ip, ip, #86016	; 0x15000
   10698:	e5bcf9a4 	ldr	pc, [ip, #2468]!	; 0x9a4

Disassembly of section .text:

000106a0 <main>:
   106a0:	e92d41f0 	push	{r4, r5, r6, r7, r8, lr}
   106a4:	e24dd040 	sub	sp, sp, #64	; 0x40
   106a8:	e59f0fe8 	ldr	r0, [pc, #4072]	; 11698 <main+0xff8>
   106ac:	ebffffdf 	bl	10630 <puts@plt>
   106b0:	e59f1fe4 	ldr	r1, [pc, #4068]	; 1169c <main+0xffc>
   106b4:	e59f0fe4 	ldr	r0, [pc, #4068]	; 116a0 <main+0x1000>
   106b8:	ebffffd0 	bl	10600 <printf@plt>
   106bc:	e59f0fd4 	ldr	r0, [pc, #4052]	; 11698 <main+0xff8>
   106c0:	ebffffda 	bl	10630 <puts@plt>
   106c4:	e59f3fd8 	ldr	r3, [pc, #4056]	; 116a4 <main+0x1004>
   106c8:	e28d2010 	add	r2, sp, #16
   106cc:	e283e018 	add	lr, r3, #24
   106d0:	e1a06002 	mov	r6, r2
   106d4:	e1a0800e 	mov	r8, lr
   106d8:	e5930000 	ldr	r0, [r3]
   106dc:	e5931004 	ldr	r1, [r3, #4]
   106e0:	e1a0c002 	mov	ip, r2
   106e4:	e2833008 	add	r3, r3, #8
   106e8:	e153000e 	cmp	r3, lr
   106ec:	e8ac0003 	stmia	ip!, {r0, r1}
   106f0:	e1a0200c 	mov	r2, ip
   106f4:	1afffff7 	bne	106d8 <main+0x38>
   106f8:	e5930000 	ldr	r0, [r3]
   106fc:	e1d310b4 	ldrh	r1, [r3, #4]
   10700:	e5d33006 	ldrb	r3, [r3, #6]
   10704:	e58c0000 	str	r0, [ip]
   10708:	e1cc10b4 	strh	r1, [ip, #4]
   1070c:	e5cc3006 	strb	r3, [ip, #6]
   10710:	e1a01006 	mov	r1, r6
   10714:	e59f0f8c 	ldr	r0, [pc, #3980]	; 116a8 <main+0x1008>
   10718:	ebffffb8 	bl	10600 <printf@plt>
   1071c:	eb0004bc 	bl	11a14 <unittest_reset_counter>
   10720:	e59f0f84 	ldr	r0, [pc, #3972]	; 116ac <main+0x100c>
   10724:	eb000f7b 	bl	14518 <rpi_protocol_init>
   10728:	eb0004da 	bl	11a98 <UNITTEST_TIMER_start>
   1072c:	e3a000fa 	mov	r0, #250	; 0xfa
   10730:	eb0004de 	bl	11ab0 <UNITTEST_TIMER_is_up>
   10734:	e3500000 	cmp	r0, #0
   10738:	0a000302 	beq	11348 <main+0xca8>
   1073c:	e59f4f6c 	ldr	r4, [pc, #3948]	; 116b0 <main+0x1010>
   10740:	e5d45000 	ldrb	r5, [r4]
   10744:	e3550000 	cmp	r5, #0
   10748:	0a000300 	beq	11350 <main+0xcb0>
   1074c:	e1d430ba 	ldrh	r3, [r4, #10]
   10750:	e1a02005 	mov	r2, r5
   10754:	e59f1fd0 	ldr	r1, [pc, #4048]	; 1172c <main+0x108c>
   10758:	e2833001 	add	r3, r3, #1
   1075c:	e1c430ba 	strh	r3, [r4, #10]
   10760:	e3a0309a 	mov	r3, #154	; 0x9a
   10764:	e58d3004 	str	r3, [sp, #4]
   10768:	e59f3f44 	ldr	r3, [pc, #3908]	; 116b4 <main+0x1014>
   1076c:	e59f0f44 	ldr	r0, [pc, #3908]	; 116b8 <main+0x1018>
   10770:	e58d3000 	str	r3, [sp]
   10774:	e3a03000 	mov	r3, #0
   10778:	ebffffa0 	bl	10600 <printf@plt>
   1077c:	e3a05001 	mov	r5, #1
   10780:	e3a07000 	mov	r7, #0
   10784:	e5d42001 	ldrb	r2, [r4, #1]
   10788:	e3520000 	cmp	r2, #0
   1078c:	0a0002f8 	beq	11374 <main+0xcd4>
   10790:	e1d430ba 	ldrh	r3, [r4, #10]
   10794:	e59f1f94 	ldr	r1, [pc, #3988]	; 11730 <main+0x1090>
   10798:	e59f0f18 	ldr	r0, [pc, #3864]	; 116b8 <main+0x1018>
   1079c:	e2833001 	add	r3, r3, #1
   107a0:	e1c430ba 	strh	r3, [r4, #10]
   107a4:	e3a0309b 	mov	r3, #155	; 0x9b
   107a8:	e58d3004 	str	r3, [sp, #4]
   107ac:	e59f3f00 	ldr	r3, [pc, #3840]	; 116b4 <main+0x1014>
   107b0:	e2855001 	add	r5, r5, #1
   107b4:	e58d3000 	str	r3, [sp]
   107b8:	e3a03000 	mov	r3, #0
   107bc:	ebffff8f 	bl	10600 <printf@plt>
   107c0:	e5d42002 	ldrb	r2, [r4, #2]
   107c4:	e3520000 	cmp	r2, #0
   107c8:	0a0002f1 	beq	11394 <main+0xcf4>
   107cc:	e1d430ba 	ldrh	r3, [r4, #10]
   107d0:	e59f1f5c 	ldr	r1, [pc, #3932]	; 11734 <main+0x1094>
   107d4:	e59f0edc 	ldr	r0, [pc, #3804]	; 116b8 <main+0x1018>
   107d8:	e2833001 	add	r3, r3, #1
   107dc:	e1c430ba 	strh	r3, [r4, #10]
   107e0:	e3a0309c 	mov	r3, #156	; 0x9c
   107e4:	e58d3004 	str	r3, [sp, #4]
   107e8:	e59f3ec4 	ldr	r3, [pc, #3780]	; 116b4 <main+0x1014>
   107ec:	e2855001 	add	r5, r5, #1
   107f0:	e58d3000 	str	r3, [sp]
   107f4:	e3a03000 	mov	r3, #0
   107f8:	ebffff80 	bl	10600 <printf@plt>
   107fc:	e5d42003 	ldrb	r2, [r4, #3]
   10800:	e3520000 	cmp	r2, #0
   10804:	0a0002ea 	beq	113b4 <main+0xd14>
   10808:	e1d430ba 	ldrh	r3, [r4, #10]
   1080c:	e59f1f24 	ldr	r1, [pc, #3876]	; 11738 <main+0x1098>
   10810:	e59f0ea0 	ldr	r0, [pc, #3744]	; 116b8 <main+0x1018>
   10814:	e2833001 	add	r3, r3, #1
   10818:	e1c430ba 	strh	r3, [r4, #10]
   1081c:	e3a0309d 	mov	r3, #157	; 0x9d
   10820:	e58d3004 	str	r3, [sp, #4]
   10824:	e59f3e88 	ldr	r3, [pc, #3720]	; 116b4 <main+0x1014>
   10828:	e2855001 	add	r5, r5, #1
   1082c:	e58d3000 	str	r3, [sp]
   10830:	e3a03000 	mov	r3, #0
   10834:	ebffff71 	bl	10600 <printf@plt>
   10838:	e0873005 	add	r3, r7, r5
   1083c:	e1a02007 	mov	r2, r7
   10840:	e1a01006 	mov	r1, r6
   10844:	e59f0e70 	ldr	r0, [pc, #3696]	; 116bc <main+0x101c>
   10848:	ebffff6c 	bl	10600 <printf@plt>
   1084c:	eb0005d5 	bl	11fa8 <UT_RPI_PROTOCOL_COMMAND_RECEIVED_SLOT_connect>
   10850:	eb0005c8 	bl	11f78 <UT_RPI_PROTOCOL_LEAVE_SLEEP_SLOT_connect>
   10854:	eb0005cd 	bl	11f90 <UT_RPI_PROTOCOL_ENTER_SLEEP_SLOT_connect>
   10858:	eb0005d8 	bl	11fc0 <UT_RPI_PROTOCOL_INVALID_COMMAND_RECEIVED_SLOT_connect>
   1085c:	e59f3e40 	ldr	r3, [pc, #3648]	; 116a4 <main+0x1004>
   10860:	e1a02006 	mov	r2, r6
   10864:	e5930000 	ldr	r0, [r3]
   10868:	e5931004 	ldr	r1, [r3, #4]
   1086c:	e1a0c002 	mov	ip, r2
   10870:	e2833008 	add	r3, r3, #8
   10874:	e1530008 	cmp	r3, r8
   10878:	e8ac0003 	stmia	ip!, {r0, r1}
   1087c:	e1a0200c 	mov	r2, ip
   10880:	1afffff7 	bne	10864 <main+0x1c4>
   10884:	e5930000 	ldr	r0, [r3]
   10888:	e1d310b4 	ldrh	r1, [r3, #4]
   1088c:	e5d33006 	ldrb	r3, [r3, #6]
   10890:	e58c0000 	str	r0, [ip]
   10894:	e1cc10b4 	strh	r1, [ip, #4]
   10898:	e5cc3006 	strb	r3, [ip, #6]
   1089c:	e1a01006 	mov	r1, r6
   108a0:	e59f0e00 	ldr	r0, [pc, #3584]	; 116a8 <main+0x1008>
   108a4:	ebffff55 	bl	10600 <printf@plt>
   108a8:	eb000459 	bl	11a14 <unittest_reset_counter>
   108ac:	eb000479 	bl	11a98 <UNITTEST_TIMER_start>
   108b0:	eb0009f7 	bl	13094 <READY_INOUT_drive_low>
   108b4:	e3a000fa 	mov	r0, #250	; 0xfa
   108b8:	eb00047c 	bl	11ab0 <UNITTEST_TIMER_is_up>
   108bc:	e3500000 	cmp	r0, #0
   108c0:	0a0002c3 	beq	113d4 <main+0xd34>
   108c4:	e5d45000 	ldrb	r5, [r4]
   108c8:	e3550001 	cmp	r5, #1
   108cc:	0a0002c2 	beq	113dc <main+0xd3c>
   108d0:	e1d430ba 	ldrh	r3, [r4, #10]
   108d4:	e1a02005 	mov	r2, r5
   108d8:	e59f1e4c 	ldr	r1, [pc, #3660]	; 1172c <main+0x108c>
   108dc:	e2833001 	add	r3, r3, #1
   108e0:	e1c430ba 	strh	r3, [r4, #10]
   108e4:	e3a030b2 	mov	r3, #178	; 0xb2
   108e8:	e58d3004 	str	r3, [sp, #4]
   108ec:	e59f3dc0 	ldr	r3, [pc, #3520]	; 116b4 <main+0x1014>
   108f0:	e59f0dc0 	ldr	r0, [pc, #3520]	; 116b8 <main+0x1018>
   108f4:	e58d3000 	str	r3, [sp]
   108f8:	e3a03001 	mov	r3, #1
   108fc:	ebffff3f 	bl	10600 <printf@plt>
   10900:	e3a07001 	mov	r7, #1
   10904:	e3a05000 	mov	r5, #0
   10908:	e5d42001 	ldrb	r2, [r4, #1]
   1090c:	e3520000 	cmp	r2, #0
   10910:	0a0002ba 	beq	11400 <main+0xd60>
   10914:	e1d430ba 	ldrh	r3, [r4, #10]
   10918:	e59f1e10 	ldr	r1, [pc, #3600]	; 11730 <main+0x1090>
   1091c:	e59f0d94 	ldr	r0, [pc, #3476]	; 116b8 <main+0x1018>
   10920:	e2833001 	add	r3, r3, #1
   10924:	e1c430ba 	strh	r3, [r4, #10]
   10928:	e3a030b3 	mov	r3, #179	; 0xb3
   1092c:	e58d3004 	str	r3, [sp, #4]
   10930:	e59f3d7c 	ldr	r3, [pc, #3452]	; 116b4 <main+0x1014>
   10934:	e2877001 	add	r7, r7, #1
   10938:	e58d3000 	str	r3, [sp]
   1093c:	e3a03000 	mov	r3, #0
   10940:	ebffff2e 	bl	10600 <printf@plt>
   10944:	e5d42002 	ldrb	r2, [r4, #2]
   10948:	e3520000 	cmp	r2, #0
   1094c:	0a0002b3 	beq	11420 <main+0xd80>
   10950:	e1d430ba 	ldrh	r3, [r4, #10]
   10954:	e59f1dd8 	ldr	r1, [pc, #3544]	; 11734 <main+0x1094>
   10958:	e59f0d58 	ldr	r0, [pc, #3416]	; 116b8 <main+0x1018>
   1095c:	e2833001 	add	r3, r3, #1
   10960:	e1c430ba 	strh	r3, [r4, #10]
   10964:	e3a030b4 	mov	r3, #180	; 0xb4
   10968:	e58d3004 	str	r3, [sp, #4]
   1096c:	e59f3d40 	ldr	r3, [pc, #3392]	; 116b4 <main+0x1014>
   10970:	e2877001 	add	r7, r7, #1
   10974:	e58d3000 	str	r3, [sp]
   10978:	e3a03000 	mov	r3, #0
   1097c:	ebffff1f 	bl	10600 <printf@plt>
   10980:	e5d42003 	ldrb	r2, [r4, #3]
   10984:	e3520000 	cmp	r2, #0
   10988:	0a0002ac 	beq	11440 <main+0xda0>
   1098c:	e1d430ba 	ldrh	r3, [r4, #10]
   10990:	e59f1da0 	ldr	r1, [pc, #3488]	; 11738 <main+0x1098>
   10994:	e59f0d1c 	ldr	r0, [pc, #3356]	; 116b8 <main+0x1018>
   10998:	e2833001 	add	r3, r3, #1
   1099c:	e1c430ba 	strh	r3, [r4, #10]
   109a0:	e3a030b5 	mov	r3, #181	; 0xb5
   109a4:	e58d3004 	str	r3, [sp, #4]
   109a8:	e59f3d04 	ldr	r3, [pc, #3332]	; 116b4 <main+0x1014>
   109ac:	e2877001 	add	r7, r7, #1
   109b0:	e58d3000 	str	r3, [sp]
   109b4:	e3a03000 	mov	r3, #0
   109b8:	ebffff10 	bl	10600 <printf@plt>
   109bc:	e0853007 	add	r3, r5, r7
   109c0:	e1a02005 	mov	r2, r5
   109c4:	e1a01006 	mov	r1, r6
   109c8:	e59f0cec 	ldr	r0, [pc, #3308]	; 116bc <main+0x101c>
   109cc:	ebffff0b 	bl	10600 <printf@plt>
   109d0:	e59f3ce8 	ldr	r3, [pc, #3304]	; 116c0 <main+0x1020>
   109d4:	e1a02006 	mov	r2, r6
   109d8:	e283e028 	add	lr, r3, #40	; 0x28
   109dc:	e5930000 	ldr	r0, [r3]
   109e0:	e5931004 	ldr	r1, [r3, #4]
   109e4:	e1a0c002 	mov	ip, r2
   109e8:	e2833008 	add	r3, r3, #8
   109ec:	e153000e 	cmp	r3, lr
   109f0:	e8ac0003 	stmia	ip!, {r0, r1}
   109f4:	e1a0200c 	mov	r2, ip
   109f8:	1afffff7 	bne	109dc <main+0x33c>
   109fc:	e5930000 	ldr	r0, [r3]
   10a00:	e1a01006 	mov	r1, r6
   10a04:	e58c0000 	str	r0, [ip]
   10a08:	e59f0c98 	ldr	r0, [pc, #3224]	; 116a8 <main+0x1008>
   10a0c:	ebfffefb 	bl	10600 <printf@plt>
   10a10:	eb0003ff 	bl	11a14 <unittest_reset_counter>
   10a14:	eb00041f 	bl	11a98 <UNITTEST_TIMER_start>
   10a18:	e59f3ca4 	ldr	r3, [pc, #3236]	; 116c4 <main+0x1024>
   10a1c:	e28d500c 	add	r5, sp, #12
   10a20:	e1a01005 	mov	r1, r5
   10a24:	e1d330b0 	ldrh	r3, [r3]
   10a28:	e3a00002 	mov	r0, #2
   10a2c:	e3a0700a 	mov	r7, #10
   10a30:	e1cd30bc 	strh	r3, [sp, #12]
   10a34:	eb001146 	bl	14f54 <test_driver_set_rx_bytes>
   10a38:	e3a03000 	mov	r3, #0
   10a3c:	e5cd300c 	strb	r3, [sp, #12]
   10a40:	e3a000fa 	mov	r0, #250	; 0xfa
   10a44:	eb000419 	bl	11ab0 <UNITTEST_TIMER_is_up>
   10a48:	e3500000 	cmp	r0, #0
   10a4c:	0a000283 	beq	11460 <main+0xdc0>
   10a50:	e5d47000 	ldrb	r7, [r4]
   10a54:	e3570000 	cmp	r7, #0
   10a58:	0a00028b 	beq	1148c <main+0xdec>
   10a5c:	e1d430ba 	ldrh	r3, [r4, #10]
   10a60:	e1a02007 	mov	r2, r7
   10a64:	e59f1cc0 	ldr	r1, [pc, #3264]	; 1172c <main+0x108c>
   10a68:	e2833001 	add	r3, r3, #1
   10a6c:	e1c430ba 	strh	r3, [r4, #10]
   10a70:	e3a030d4 	mov	r3, #212	; 0xd4
   10a74:	e58d3004 	str	r3, [sp, #4]
   10a78:	e59f3c34 	ldr	r3, [pc, #3124]	; 116b4 <main+0x1014>
   10a7c:	e59f0c34 	ldr	r0, [pc, #3124]	; 116b8 <main+0x1018>
   10a80:	e58d3000 	str	r3, [sp]
   10a84:	e3a03000 	mov	r3, #0
   10a88:	ebfffedc 	bl	10600 <printf@plt>
   10a8c:	e3a07001 	mov	r7, #1
   10a90:	e3a08000 	mov	r8, #0
   10a94:	e5d42001 	ldrb	r2, [r4, #1]
   10a98:	e3520000 	cmp	r2, #0
   10a9c:	0a000283 	beq	114b0 <main+0xe10>
   10aa0:	e1d430ba 	ldrh	r3, [r4, #10]
   10aa4:	e59f1c84 	ldr	r1, [pc, #3204]	; 11730 <main+0x1090>
   10aa8:	e59f0c08 	ldr	r0, [pc, #3080]	; 116b8 <main+0x1018>
   10aac:	e2833001 	add	r3, r3, #1
   10ab0:	e1c430ba 	strh	r3, [r4, #10]
   10ab4:	e3a030d5 	mov	r3, #213	; 0xd5
   10ab8:	e58d3004 	str	r3, [sp, #4]
   10abc:	e59f3bf0 	ldr	r3, [pc, #3056]	; 116b4 <main+0x1014>
   10ac0:	e2877001 	add	r7, r7, #1
   10ac4:	e58d3000 	str	r3, [sp]
   10ac8:	e3a03000 	mov	r3, #0
   10acc:	ebfffecb 	bl	10600 <printf@plt>
   10ad0:	e5d42002 	ldrb	r2, [r4, #2]
   10ad4:	e3520001 	cmp	r2, #1
   10ad8:	0a00027c 	beq	114d0 <main+0xe30>
   10adc:	e1d430ba 	ldrh	r3, [r4, #10]
   10ae0:	e59f1c4c 	ldr	r1, [pc, #3148]	; 11734 <main+0x1094>
   10ae4:	e59f0bcc 	ldr	r0, [pc, #3020]	; 116b8 <main+0x1018>
   10ae8:	e2833001 	add	r3, r3, #1
   10aec:	e1c430ba 	strh	r3, [r4, #10]
   10af0:	e3a030d6 	mov	r3, #214	; 0xd6
   10af4:	e58d3004 	str	r3, [sp, #4]
   10af8:	e59f3bb4 	ldr	r3, [pc, #2996]	; 116b4 <main+0x1014>
   10afc:	e2877001 	add	r7, r7, #1
   10b00:	e58d3000 	str	r3, [sp]
   10b04:	e3a03001 	mov	r3, #1
   10b08:	ebfffebc 	bl	10600 <printf@plt>
   10b0c:	e5d42003 	ldrb	r2, [r4, #3]
   10b10:	e3520000 	cmp	r2, #0
   10b14:	0a000275 	beq	114f0 <main+0xe50>
   10b18:	e1d430ba 	ldrh	r3, [r4, #10]
   10b1c:	e59f1c14 	ldr	r1, [pc, #3092]	; 11738 <main+0x1098>
   10b20:	e59f0b90 	ldr	r0, [pc, #2960]	; 116b8 <main+0x1018>
   10b24:	e2833001 	add	r3, r3, #1
   10b28:	e1c430ba 	strh	r3, [r4, #10]
   10b2c:	e3a030d7 	mov	r3, #215	; 0xd7
   10b30:	e58d3004 	str	r3, [sp, #4]
   10b34:	e59f3b78 	ldr	r3, [pc, #2936]	; 116b4 <main+0x1014>
   10b38:	e2877001 	add	r7, r7, #1
   10b3c:	e58d3000 	str	r3, [sp]
   10b40:	e3a03000 	mov	r3, #0
   10b44:	ebfffead 	bl	10600 <printf@plt>
   10b48:	e0883007 	add	r3, r8, r7
   10b4c:	e1a02008 	mov	r2, r8
   10b50:	e1a01006 	mov	r1, r6
   10b54:	e59f0b60 	ldr	r0, [pc, #2912]	; 116bc <main+0x101c>
   10b58:	ebfffea8 	bl	10600 <printf@plt>
   10b5c:	eb0003d8 	bl	11ac4 <UNITTEST_rpi_protocol_receive_response>
   10b60:	e59f3b60 	ldr	r3, [pc, #2912]	; 116c8 <main+0x1028>
   10b64:	e1a02006 	mov	r2, r6
   10b68:	e283e028 	add	lr, r3, #40	; 0x28
   10b6c:	e5930000 	ldr	r0, [r3]
   10b70:	e5931004 	ldr	r1, [r3, #4]
   10b74:	e1a0c002 	mov	ip, r2
   10b78:	e2833008 	add	r3, r3, #8
   10b7c:	e153000e 	cmp	r3, lr
   10b80:	e8ac0003 	stmia	ip!, {r0, r1}
   10b84:	e1a0200c 	mov	r2, ip
   10b88:	1afffff7 	bne	10b6c <main+0x4cc>
   10b8c:	e1d330b0 	ldrh	r3, [r3]
   10b90:	e1a01006 	mov	r1, r6
   10b94:	e59f0b0c 	ldr	r0, [pc, #2828]	; 116a8 <main+0x1008>
   10b98:	e1cc30b0 	strh	r3, [ip]
   10b9c:	ebfffe97 	bl	10600 <printf@plt>
   10ba0:	eb00039b 	bl	11a14 <unittest_reset_counter>
   10ba4:	eb0003bb 	bl	11a98 <UNITTEST_TIMER_start>
   10ba8:	e59f3b1c 	ldr	r3, [pc, #2844]	; 116cc <main+0x102c>
   10bac:	e1a01005 	mov	r1, r5
   10bb0:	e3a00003 	mov	r0, #3
   10bb4:	e1d320b0 	ldrh	r2, [r3]
   10bb8:	e5d33002 	ldrb	r3, [r3, #2]
   10bbc:	e3a0600a 	mov	r6, #10
   10bc0:	e1cd20bc 	strh	r2, [sp, #12]
   10bc4:	e5c53002 	strb	r3, [r5, #2]
   10bc8:	eb0010e1 	bl	14f54 <test_driver_set_rx_bytes>
   10bcc:	e3a03000 	mov	r3, #0
   10bd0:	e5cd300c 	strb	r3, [sp, #12]
   10bd4:	e3a000fa 	mov	r0, #250	; 0xfa
   10bd8:	eb0003b4 	bl	11ab0 <UNITTEST_TIMER_is_up>
   10bdc:	e3500000 	cmp	r0, #0
   10be0:	0a00024a 	beq	11510 <main+0xe70>
   10be4:	e5d46000 	ldrb	r6, [r4]
   10be8:	e3560000 	cmp	r6, #0
   10bec:	0a000252 	beq	1153c <main+0xe9c>
   10bf0:	e1d430ba 	ldrh	r3, [r4, #10]
   10bf4:	e1a02006 	mov	r2, r6
   10bf8:	e59f1b2c 	ldr	r1, [pc, #2860]	; 1172c <main+0x108c>
   10bfc:	e2833001 	add	r3, r3, #1
   10c00:	e1c430ba 	strh	r3, [r4, #10]
   10c04:	e59f3ac4 	ldr	r3, [pc, #2756]	; 116d0 <main+0x1030>
   10c08:	e59f0aa8 	ldr	r0, [pc, #2728]	; 116b8 <main+0x1018>
   10c0c:	e58d3004 	str	r3, [sp, #4]
   10c10:	e59f3a9c 	ldr	r3, [pc, #2716]	; 116b4 <main+0x1014>
   10c14:	e3a06001 	mov	r6, #1
   10c18:	e58d3000 	str	r3, [sp]
   10c1c:	e3a03000 	mov	r3, #0
   10c20:	ebfffe76 	bl	10600 <printf@plt>
   10c24:	e3a07000 	mov	r7, #0
   10c28:	e5d42001 	ldrb	r2, [r4, #1]
   10c2c:	e3520000 	cmp	r2, #0
   10c30:	0a00024a 	beq	11560 <main+0xec0>
   10c34:	e1d430ba 	ldrh	r3, [r4, #10]
   10c38:	e59f1af0 	ldr	r1, [pc, #2800]	; 11730 <main+0x1090>
   10c3c:	e59f0a74 	ldr	r0, [pc, #2676]	; 116b8 <main+0x1018>
   10c40:	e2833001 	add	r3, r3, #1
   10c44:	e1c430ba 	strh	r3, [r4, #10]
   10c48:	e59f3a84 	ldr	r3, [pc, #2692]	; 116d4 <main+0x1034>
   10c4c:	e2866001 	add	r6, r6, #1
   10c50:	e58d3004 	str	r3, [sp, #4]
   10c54:	e59f3a58 	ldr	r3, [pc, #2648]	; 116b4 <main+0x1014>
   10c58:	e58d3000 	str	r3, [sp]
   10c5c:	e3a03000 	mov	r3, #0
   10c60:	ebfffe66 	bl	10600 <printf@plt>
   10c64:	e5d42002 	ldrb	r2, [r4, #2]
   10c68:	e3520001 	cmp	r2, #1
   10c6c:	0a000243 	beq	11580 <main+0xee0>
   10c70:	e1d430ba 	ldrh	r3, [r4, #10]
   10c74:	e59f1ab8 	ldr	r1, [pc, #2744]	; 11734 <main+0x1094>
   10c78:	e59f0a38 	ldr	r0, [pc, #2616]	; 116b8 <main+0x1018>
   10c7c:	e2833001 	add	r3, r3, #1
   10c80:	e1c430ba 	strh	r3, [r4, #10]
   10c84:	e3a03f49 	mov	r3, #292	; 0x124
   10c88:	e58d3004 	str	r3, [sp, #4]
   10c8c:	e59f3a20 	ldr	r3, [pc, #2592]	; 116b4 <main+0x1014>
   10c90:	e2866001 	add	r6, r6, #1
   10c94:	e58d3000 	str	r3, [sp]
   10c98:	e3a03001 	mov	r3, #1
   10c9c:	ebfffe57 	bl	10600 <printf@plt>
   10ca0:	e5d42003 	ldrb	r2, [r4, #3]
   10ca4:	e3520000 	cmp	r2, #0
   10ca8:	0a00023c 	beq	115a0 <main+0xf00>
   10cac:	e1d430ba 	ldrh	r3, [r4, #10]
   10cb0:	e59f1a80 	ldr	r1, [pc, #2688]	; 11738 <main+0x1098>
   10cb4:	e59f09fc 	ldr	r0, [pc, #2556]	; 116b8 <main+0x1018>
   10cb8:	e2833001 	add	r3, r3, #1
   10cbc:	e1c430ba 	strh	r3, [r4, #10]
   10cc0:	e59f3a10 	ldr	r3, [pc, #2576]	; 116d8 <main+0x1038>
   10cc4:	e2866001 	add	r6, r6, #1
   10cc8:	e58d3004 	str	r3, [sp, #4]
   10ccc:	e59f39e0 	ldr	r3, [pc, #2528]	; 116b4 <main+0x1014>
   10cd0:	e58d3000 	str	r3, [sp]
   10cd4:	e3a03000 	mov	r3, #0
   10cd8:	ebfffe48 	bl	10600 <printf@plt>
   10cdc:	e0873006 	add	r3, r7, r6
   10ce0:	e1a02007 	mov	r2, r7
   10ce4:	e28d1010 	add	r1, sp, #16
   10ce8:	e59f09cc 	ldr	r0, [pc, #2508]	; 116bc <main+0x101c>
   10cec:	ebfffe43 	bl	10600 <printf@plt>
   10cf0:	e59f39e4 	ldr	r3, [pc, #2532]	; 116dc <main+0x103c>
   10cf4:	e28d2010 	add	r2, sp, #16
   10cf8:	e283e020 	add	lr, r3, #32
   10cfc:	e5930000 	ldr	r0, [r3]
   10d00:	e5931004 	ldr	r1, [r3, #4]
   10d04:	e1a0c002 	mov	ip, r2
   10d08:	e2833008 	add	r3, r3, #8
   10d0c:	e153000e 	cmp	r3, lr
   10d10:	e8ac0003 	stmia	ip!, {r0, r1}
   10d14:	e1a0200c 	mov	r2, ip
   10d18:	1afffff7 	bne	10cfc <main+0x65c>
   10d1c:	e5d33000 	ldrb	r3, [r3]
   10d20:	e28d1010 	add	r1, sp, #16
   10d24:	e59f097c 	ldr	r0, [pc, #2428]	; 116a8 <main+0x1008>
   10d28:	e5cc3000 	strb	r3, [ip]
   10d2c:	ebfffe33 	bl	10600 <printf@plt>
   10d30:	eb000337 	bl	11a14 <unittest_reset_counter>
   10d34:	eb000357 	bl	11a98 <UNITTEST_TIMER_start>
   10d38:	eb0008e0 	bl	130c0 <READY_INOUT_pull_up>
   10d3c:	e3a04000 	mov	r4, #0
   10d40:	e3a00f7d 	mov	r0, #500	; 0x1f4
   10d44:	eb000359 	bl	11ab0 <UNITTEST_TIMER_is_up>
   10d48:	e3500000 	cmp	r0, #0
   10d4c:	0a00021b 	beq	115c0 <main+0xf20>
   10d50:	e59f4958 	ldr	r4, [pc, #2392]	; 116b0 <main+0x1010>
   10d54:	e5d46000 	ldrb	r6, [r4]
   10d58:	e3560000 	cmp	r6, #0
   10d5c:	0a000221 	beq	115e8 <main+0xf48>
   10d60:	e1d430ba 	ldrh	r3, [r4, #10]
   10d64:	e1a02006 	mov	r2, r6
   10d68:	e59f19bc 	ldr	r1, [pc, #2492]	; 1172c <main+0x108c>
   10d6c:	e2833001 	add	r3, r3, #1
   10d70:	e1c430ba 	strh	r3, [r4, #10]
   10d74:	e59f3964 	ldr	r3, [pc, #2404]	; 116e0 <main+0x1040>
   10d78:	e59f0938 	ldr	r0, [pc, #2360]	; 116b8 <main+0x1018>
   10d7c:	e58d3004 	str	r3, [sp, #4]
   10d80:	e59f392c 	ldr	r3, [pc, #2348]	; 116b4 <main+0x1014>
   10d84:	e3a06001 	mov	r6, #1
   10d88:	e58d3000 	str	r3, [sp]
   10d8c:	e3a03000 	mov	r3, #0
   10d90:	ebfffe1a 	bl	10600 <printf@plt>
   10d94:	e3a07000 	mov	r7, #0
   10d98:	e5d42001 	ldrb	r2, [r4, #1]
   10d9c:	e3520000 	cmp	r2, #0
   10da0:	0a000219 	beq	1160c <main+0xf6c>
   10da4:	e1d430ba 	ldrh	r3, [r4, #10]
   10da8:	e59f1980 	ldr	r1, [pc, #2432]	; 11730 <main+0x1090>
   10dac:	e59f0904 	ldr	r0, [pc, #2308]	; 116b8 <main+0x1018>
   10db0:	e2833001 	add	r3, r3, #1
   10db4:	e1c430ba 	strh	r3, [r4, #10]
   10db8:	e59f3924 	ldr	r3, [pc, #2340]	; 116e4 <main+0x1044>
   10dbc:	e2866001 	add	r6, r6, #1
   10dc0:	e58d3004 	str	r3, [sp, #4]
   10dc4:	e59f38e8 	ldr	r3, [pc, #2280]	; 116b4 <main+0x1014>
   10dc8:	e58d3000 	str	r3, [sp]
   10dcc:	e3a03000 	mov	r3, #0
   10dd0:	ebfffe0a 	bl	10600 <printf@plt>
   10dd4:	e5d42002 	ldrb	r2, [r4, #2]
   10dd8:	e3520000 	cmp	r2, #0
   10ddc:	0a000212 	beq	1162c <main+0xf8c>
   10de0:	e1d430ba 	ldrh	r3, [r4, #10]
   10de4:	e59f1948 	ldr	r1, [pc, #2376]	; 11734 <main+0x1094>
   10de8:	e59f08c8 	ldr	r0, [pc, #2248]	; 116b8 <main+0x1018>
   10dec:	e2833001 	add	r3, r3, #1
   10df0:	e1c430ba 	strh	r3, [r4, #10]
   10df4:	e3a03f51 	mov	r3, #324	; 0x144
   10df8:	e58d3004 	str	r3, [sp, #4]
   10dfc:	e59f38b0 	ldr	r3, [pc, #2224]	; 116b4 <main+0x1014>
   10e00:	e2866001 	add	r6, r6, #1
   10e04:	e58d3000 	str	r3, [sp]
   10e08:	e3a03000 	mov	r3, #0
   10e0c:	ebfffdfb 	bl	10600 <printf@plt>
   10e10:	e5d42003 	ldrb	r2, [r4, #3]
   10e14:	e3520000 	cmp	r2, #0
   10e18:	0a00020b 	beq	1164c <main+0xfac>
   10e1c:	e1d430ba 	ldrh	r3, [r4, #10]
   10e20:	e59f1910 	ldr	r1, [pc, #2320]	; 11738 <main+0x1098>
   10e24:	e59f088c 	ldr	r0, [pc, #2188]	; 116b8 <main+0x1018>
   10e28:	e2833001 	add	r3, r3, #1
   10e2c:	e1c430ba 	strh	r3, [r4, #10]
   10e30:	e59f38b0 	ldr	r3, [pc, #2224]	; 116e8 <main+0x1048>
   10e34:	e2866001 	add	r6, r6, #1
   10e38:	e58d3004 	str	r3, [sp, #4]
   10e3c:	e59f3870 	ldr	r3, [pc, #2160]	; 116b4 <main+0x1014>
   10e40:	e58d3000 	str	r3, [sp]
   10e44:	e3a03000 	mov	r3, #0
   10e48:	ebfffdec 	bl	10600 <printf@plt>
   10e4c:	e0873006 	add	r3, r7, r6
   10e50:	e1a02007 	mov	r2, r7
   10e54:	e28d1010 	add	r1, sp, #16
   10e58:	e59f085c 	ldr	r0, [pc, #2140]	; 116bc <main+0x101c>
   10e5c:	ebfffde7 	bl	10600 <printf@plt>
   10e60:	e59f3884 	ldr	r3, [pc, #2180]	; 116ec <main+0x104c>
   10e64:	e28d2010 	add	r2, sp, #16
   10e68:	e283e028 	add	lr, r3, #40	; 0x28
   10e6c:	e5930000 	ldr	r0, [r3]
   10e70:	e5931004 	ldr	r1, [r3, #4]
   10e74:	e1a0c002 	mov	ip, r2
   10e78:	e2833008 	add	r3, r3, #8
   10e7c:	e153000e 	cmp	r3, lr
   10e80:	e8ac0003 	stmia	ip!, {r0, r1}
   10e84:	e1a0200c 	mov	r2, ip
   10e88:	1afffff7 	bne	10e6c <main+0x7cc>
   10e8c:	e5930000 	ldr	r0, [r3]
   10e90:	e1d330b4 	ldrh	r3, [r3, #4]
   10e94:	e58c0000 	str	r0, [ip]
   10e98:	e28d1010 	add	r1, sp, #16
   10e9c:	e1cc30b4 	strh	r3, [ip, #4]
   10ea0:	e59f0800 	ldr	r0, [pc, #2048]	; 116a8 <main+0x1008>
   10ea4:	ebfffdd5 	bl	10600 <printf@plt>
   10ea8:	eb0002d9 	bl	11a14 <unittest_reset_counter>
   10eac:	eb0002f9 	bl	11a98 <UNITTEST_TIMER_start>
   10eb0:	e59f3838 	ldr	r3, [pc, #2104]	; 116f0 <main+0x1050>
   10eb4:	e1a01005 	mov	r1, r5
   10eb8:	e3a00002 	mov	r0, #2
   10ebc:	e1d330b0 	ldrh	r3, [r3]
   10ec0:	e3a0600a 	mov	r6, #10
   10ec4:	e1cd30bc 	strh	r3, [sp, #12]
   10ec8:	eb001021 	bl	14f54 <test_driver_set_rx_bytes>
   10ecc:	e3a03000 	mov	r3, #0
   10ed0:	e5cd300c 	strb	r3, [sp, #12]
   10ed4:	e3a000fa 	mov	r0, #250	; 0xfa
   10ed8:	eb0002f4 	bl	11ab0 <UNITTEST_TIMER_is_up>
   10edc:	e3500000 	cmp	r0, #0
   10ee0:	0a0001e1 	beq	1166c <main+0xfcc>
   10ee4:	e5d45000 	ldrb	r5, [r4]
   10ee8:	e3550000 	cmp	r5, #0
   10eec:	0a000213 	beq	11740 <main+0x10a0>
   10ef0:	e1d430ba 	ldrh	r3, [r4, #10]
   10ef4:	e1a02005 	mov	r2, r5
   10ef8:	e59f182c 	ldr	r1, [pc, #2092]	; 1172c <main+0x108c>
   10efc:	e2833001 	add	r3, r3, #1
   10f00:	e1c430ba 	strh	r3, [r4, #10]
   10f04:	e3a03f59 	mov	r3, #356	; 0x164
   10f08:	e58d3004 	str	r3, [sp, #4]
   10f0c:	e59f37a0 	ldr	r3, [pc, #1952]	; 116b4 <main+0x1014>
   10f10:	e59f07a0 	ldr	r0, [pc, #1952]	; 116b8 <main+0x1018>
   10f14:	e58d3000 	str	r3, [sp]
   10f18:	e3a03000 	mov	r3, #0
   10f1c:	ebfffdb7 	bl	10600 <printf@plt>
   10f20:	e3a05001 	mov	r5, #1
   10f24:	e3a06000 	mov	r6, #0
   10f28:	e5d42001 	ldrb	r2, [r4, #1]
   10f2c:	e3520000 	cmp	r2, #0
   10f30:	0a00020b 	beq	11764 <main+0x10c4>
   10f34:	e1d430ba 	ldrh	r3, [r4, #10]
   10f38:	e59f17f0 	ldr	r1, [pc, #2032]	; 11730 <main+0x1090>
   10f3c:	e59f0774 	ldr	r0, [pc, #1908]	; 116b8 <main+0x1018>
   10f40:	e2833001 	add	r3, r3, #1
   10f44:	e1c430ba 	strh	r3, [r4, #10]
   10f48:	e59f37a4 	ldr	r3, [pc, #1956]	; 116f4 <main+0x1054>
   10f4c:	e2855001 	add	r5, r5, #1
   10f50:	e58d3004 	str	r3, [sp, #4]
   10f54:	e59f3758 	ldr	r3, [pc, #1880]	; 116b4 <main+0x1014>
   10f58:	e58d3000 	str	r3, [sp]
   10f5c:	e3a03000 	mov	r3, #0
   10f60:	ebfffda6 	bl	10600 <printf@plt>
   10f64:	e5d42002 	ldrb	r2, [r4, #2]
   10f68:	e3520000 	cmp	r2, #0
   10f6c:	0a000204 	beq	11784 <main+0x10e4>
   10f70:	e1d430ba 	ldrh	r3, [r4, #10]
   10f74:	e59f17b8 	ldr	r1, [pc, #1976]	; 11734 <main+0x1094>
   10f78:	e59f0738 	ldr	r0, [pc, #1848]	; 116b8 <main+0x1018>
   10f7c:	e2833001 	add	r3, r3, #1
   10f80:	e1c430ba 	strh	r3, [r4, #10]
   10f84:	e59f376c 	ldr	r3, [pc, #1900]	; 116f8 <main+0x1058>
   10f88:	e2855001 	add	r5, r5, #1
   10f8c:	e58d3004 	str	r3, [sp, #4]
   10f90:	e59f371c 	ldr	r3, [pc, #1820]	; 116b4 <main+0x1014>
   10f94:	e58d3000 	str	r3, [sp]
   10f98:	e3a03000 	mov	r3, #0
   10f9c:	ebfffd97 	bl	10600 <printf@plt>
   10fa0:	e5d42003 	ldrb	r2, [r4, #3]
   10fa4:	e3520001 	cmp	r2, #1
   10fa8:	0a0001fd 	beq	117a4 <main+0x1104>
   10fac:	e1d430ba 	ldrh	r3, [r4, #10]
   10fb0:	e59f1780 	ldr	r1, [pc, #1920]	; 11738 <main+0x1098>
   10fb4:	e59f06fc 	ldr	r0, [pc, #1788]	; 116b8 <main+0x1018>
   10fb8:	e2833001 	add	r3, r3, #1
   10fbc:	e1c430ba 	strh	r3, [r4, #10]
   10fc0:	e59f3734 	ldr	r3, [pc, #1844]	; 116fc <main+0x105c>
   10fc4:	e2855001 	add	r5, r5, #1
   10fc8:	e58d3004 	str	r3, [sp, #4]
   10fcc:	e59f36e0 	ldr	r3, [pc, #1760]	; 116b4 <main+0x1014>
   10fd0:	e58d3000 	str	r3, [sp]
   10fd4:	e3a03001 	mov	r3, #1
   10fd8:	ebfffd88 	bl	10600 <printf@plt>
   10fdc:	e0863005 	add	r3, r6, r5
   10fe0:	e1a02006 	mov	r2, r6
   10fe4:	e28d1010 	add	r1, sp, #16
   10fe8:	e59f06cc 	ldr	r0, [pc, #1740]	; 116bc <main+0x101c>
   10fec:	ebfffd83 	bl	10600 <printf@plt>
   10ff0:	e59f3708 	ldr	r3, [pc, #1800]	; 11700 <main+0x1060>
   10ff4:	e28d2010 	add	r2, sp, #16
   10ff8:	e283e028 	add	lr, r3, #40	; 0x28
   10ffc:	e5930000 	ldr	r0, [r3]
   11000:	e5931004 	ldr	r1, [r3, #4]
   11004:	e1a0c002 	mov	ip, r2
   11008:	e2833008 	add	r3, r3, #8
   1100c:	e153000e 	cmp	r3, lr
   11010:	e8ac0003 	stmia	ip!, {r0, r1}
   11014:	e1a0200c 	mov	r2, ip
   11018:	1afffff7 	bne	10ffc <main+0x95c>
   1101c:	e5930000 	ldr	r0, [r3]
   11020:	e1d330b4 	ldrh	r3, [r3, #4]
   11024:	e58c0000 	str	r0, [ip]
   11028:	e28d1010 	add	r1, sp, #16
   1102c:	e1cc30b4 	strh	r3, [ip, #4]
   11030:	e59f0670 	ldr	r0, [pc, #1648]	; 116a8 <main+0x1008>
   11034:	ebfffd71 	bl	10600 <printf@plt>
   11038:	e3a0500a 	mov	r5, #10
   1103c:	eb000274 	bl	11a14 <unittest_reset_counter>
   11040:	eb000294 	bl	11a98 <UNITTEST_TIMER_start>
   11044:	e3a03002 	mov	r3, #2
   11048:	e28d100c 	add	r1, sp, #12
   1104c:	e3a00001 	mov	r0, #1
   11050:	e5cd300c 	strb	r3, [sp, #12]
   11054:	eb000fbe 	bl	14f54 <test_driver_set_rx_bytes>
   11058:	e3a03000 	mov	r3, #0
   1105c:	e5cd300c 	strb	r3, [sp, #12]
   11060:	e3a000fa 	mov	r0, #250	; 0xfa
   11064:	eb000291 	bl	11ab0 <UNITTEST_TIMER_is_up>
   11068:	e3500000 	cmp	r0, #0
   1106c:	0a0001d4 	beq	117c4 <main+0x1124>
   11070:	e5d45000 	ldrb	r5, [r4]
   11074:	e3550000 	cmp	r5, #0
   11078:	0a0001dc 	beq	117f0 <main+0x1150>
   1107c:	e1d430ba 	ldrh	r3, [r4, #10]
   11080:	e1a02005 	mov	r2, r5
   11084:	e59f16a0 	ldr	r1, [pc, #1696]	; 1172c <main+0x108c>
   11088:	e2833001 	add	r3, r3, #1
   1108c:	e1c430ba 	strh	r3, [r4, #10]
   11090:	e59f366c 	ldr	r3, [pc, #1644]	; 11704 <main+0x1064>
   11094:	e59f061c 	ldr	r0, [pc, #1564]	; 116b8 <main+0x1018>
   11098:	e58d3004 	str	r3, [sp, #4]
   1109c:	e59f3610 	ldr	r3, [pc, #1552]	; 116b4 <main+0x1014>
   110a0:	e3a05001 	mov	r5, #1
   110a4:	e58d3000 	str	r3, [sp]
   110a8:	e3a03000 	mov	r3, #0
   110ac:	ebfffd53 	bl	10600 <printf@plt>
   110b0:	e3a06000 	mov	r6, #0
   110b4:	e5d42001 	ldrb	r2, [r4, #1]
   110b8:	e3520000 	cmp	r2, #0
   110bc:	0a0001d4 	beq	11814 <main+0x1174>
   110c0:	e1d430ba 	ldrh	r3, [r4, #10]
   110c4:	e59f1664 	ldr	r1, [pc, #1636]	; 11730 <main+0x1090>
   110c8:	e59f05e8 	ldr	r0, [pc, #1512]	; 116b8 <main+0x1018>
   110cc:	e2833001 	add	r3, r3, #1
   110d0:	e1c430ba 	strh	r3, [r4, #10]
   110d4:	e59f362c 	ldr	r3, [pc, #1580]	; 11708 <main+0x1068>
   110d8:	e2855001 	add	r5, r5, #1
   110dc:	e58d3004 	str	r3, [sp, #4]
   110e0:	e59f35cc 	ldr	r3, [pc, #1484]	; 116b4 <main+0x1014>
   110e4:	e58d3000 	str	r3, [sp]
   110e8:	e3a03000 	mov	r3, #0
   110ec:	ebfffd43 	bl	10600 <printf@plt>
   110f0:	e5d42002 	ldrb	r2, [r4, #2]
   110f4:	e3520000 	cmp	r2, #0
   110f8:	0a0001cd 	beq	11834 <main+0x1194>
   110fc:	e1d430ba 	ldrh	r3, [r4, #10]
   11100:	e59f162c 	ldr	r1, [pc, #1580]	; 11734 <main+0x1094>
   11104:	e59f05ac 	ldr	r0, [pc, #1452]	; 116b8 <main+0x1018>
   11108:	e2833001 	add	r3, r3, #1
   1110c:	e1c430ba 	strh	r3, [r4, #10]
   11110:	e3a03f62 	mov	r3, #392	; 0x188
   11114:	e58d3004 	str	r3, [sp, #4]
   11118:	e59f3594 	ldr	r3, [pc, #1428]	; 116b4 <main+0x1014>
   1111c:	e2855001 	add	r5, r5, #1
   11120:	e58d3000 	str	r3, [sp]
   11124:	e3a03000 	mov	r3, #0
   11128:	ebfffd34 	bl	10600 <printf@plt>
   1112c:	e5d42003 	ldrb	r2, [r4, #3]
   11130:	e3520001 	cmp	r2, #1
   11134:	0a0001c6 	beq	11854 <main+0x11b4>
   11138:	e1d430ba 	ldrh	r3, [r4, #10]
   1113c:	e59f15f4 	ldr	r1, [pc, #1524]	; 11738 <main+0x1098>
   11140:	e59f0570 	ldr	r0, [pc, #1392]	; 116b8 <main+0x1018>
   11144:	e2833001 	add	r3, r3, #1
   11148:	e1c430ba 	strh	r3, [r4, #10]
   1114c:	e59f35b8 	ldr	r3, [pc, #1464]	; 1170c <main+0x106c>
   11150:	e2855001 	add	r5, r5, #1
   11154:	e58d3004 	str	r3, [sp, #4]
   11158:	e59f3554 	ldr	r3, [pc, #1364]	; 116b4 <main+0x1014>
   1115c:	e58d3000 	str	r3, [sp]
   11160:	e3a03001 	mov	r3, #1
   11164:	ebfffd25 	bl	10600 <printf@plt>
   11168:	e0863005 	add	r3, r6, r5
   1116c:	e1a02006 	mov	r2, r6
   11170:	e28d1010 	add	r1, sp, #16
   11174:	e59f0540 	ldr	r0, [pc, #1344]	; 116bc <main+0x101c>
   11178:	ebfffd20 	bl	10600 <printf@plt>
   1117c:	e59f358c 	ldr	r3, [pc, #1420]	; 11710 <main+0x1070>
   11180:	e28d2010 	add	r2, sp, #16
   11184:	e283e028 	add	lr, r3, #40	; 0x28
   11188:	e5930000 	ldr	r0, [r3]
   1118c:	e5931004 	ldr	r1, [r3, #4]
   11190:	e1a0c002 	mov	ip, r2
   11194:	e2833008 	add	r3, r3, #8
   11198:	e153000e 	cmp	r3, lr
   1119c:	e8ac0003 	stmia	ip!, {r0, r1}
   111a0:	e1a0200c 	mov	r2, ip
   111a4:	1afffff7 	bne	11188 <main+0xae8>
   111a8:	e5930000 	ldr	r0, [r3]
   111ac:	e1d330b4 	ldrh	r3, [r3, #4]
   111b0:	e58c0000 	str	r0, [ip]
   111b4:	e28d1010 	add	r1, sp, #16
   111b8:	e1cc30b4 	strh	r3, [ip, #4]
   111bc:	e59f04e4 	ldr	r0, [pc, #1252]	; 116a8 <main+0x1008>
   111c0:	ebfffd0e 	bl	10600 <printf@plt>
   111c4:	eb000212 	bl	11a14 <unittest_reset_counter>
   111c8:	eb000232 	bl	11a98 <UNITTEST_TIMER_start>
   111cc:	e59f3540 	ldr	r3, [pc, #1344]	; 11714 <main+0x1074>
   111d0:	e28d100c 	add	r1, sp, #12
   111d4:	e3a0500a 	mov	r5, #10
   111d8:	e5930000 	ldr	r0, [r3]
   111dc:	e58d000c 	str	r0, [sp, #12]
   111e0:	e3a00004 	mov	r0, #4
   111e4:	eb000f5a 	bl	14f54 <test_driver_set_rx_bytes>
   111e8:	e3a03000 	mov	r3, #0
   111ec:	e5cd300c 	strb	r3, [sp, #12]
   111f0:	e3a000fa 	mov	r0, #250	; 0xfa
   111f4:	eb00022d 	bl	11ab0 <UNITTEST_TIMER_is_up>
   111f8:	e3500000 	cmp	r0, #0
   111fc:	0a00019c 	beq	11874 <main+0x11d4>
   11200:	e5d45000 	ldrb	r5, [r4]
   11204:	e3550000 	cmp	r5, #0
   11208:	0a0001a4 	beq	118a0 <main+0x1200>
   1120c:	e1d430ba 	ldrh	r3, [r4, #10]
   11210:	e1a02005 	mov	r2, r5
   11214:	e59f1510 	ldr	r1, [pc, #1296]	; 1172c <main+0x108c>
   11218:	e2833001 	add	r3, r3, #1
   1121c:	e1c430ba 	strh	r3, [r4, #10]
   11220:	e3a03f6b 	mov	r3, #428	; 0x1ac
   11224:	e58d3004 	str	r3, [sp, #4]
   11228:	e59f3484 	ldr	r3, [pc, #1156]	; 116b4 <main+0x1014>
   1122c:	e59f0484 	ldr	r0, [pc, #1156]	; 116b8 <main+0x1018>
   11230:	e58d3000 	str	r3, [sp]
   11234:	e3a03000 	mov	r3, #0
   11238:	ebfffcf0 	bl	10600 <printf@plt>
   1123c:	e3a05001 	mov	r5, #1
   11240:	e3a06000 	mov	r6, #0
   11244:	e5d42001 	ldrb	r2, [r4, #1]
   11248:	e3520000 	cmp	r2, #0
   1124c:	0a00019c 	beq	118c4 <main+0x1224>
   11250:	e1d430ba 	ldrh	r3, [r4, #10]
   11254:	e59f14d4 	ldr	r1, [pc, #1236]	; 11730 <main+0x1090>
   11258:	e59f0458 	ldr	r0, [pc, #1112]	; 116b8 <main+0x1018>
   1125c:	e2833001 	add	r3, r3, #1
   11260:	e1c430ba 	strh	r3, [r4, #10]
   11264:	e59f34ac 	ldr	r3, [pc, #1196]	; 11718 <main+0x1078>
   11268:	e2855001 	add	r5, r5, #1
   1126c:	e58d3004 	str	r3, [sp, #4]
   11270:	e59f343c 	ldr	r3, [pc, #1084]	; 116b4 <main+0x1014>
   11274:	e58d3000 	str	r3, [sp]
   11278:	e3a03000 	mov	r3, #0
   1127c:	ebfffcdf 	bl	10600 <printf@plt>
   11280:	e5d42002 	ldrb	r2, [r4, #2]
   11284:	e3520000 	cmp	r2, #0
   11288:	0a000195 	beq	118e4 <main+0x1244>
   1128c:	e1d430ba 	ldrh	r3, [r4, #10]
   11290:	e59f149c 	ldr	r1, [pc, #1180]	; 11734 <main+0x1094>
   11294:	e59f041c 	ldr	r0, [pc, #1052]	; 116b8 <main+0x1018>
   11298:	e2833001 	add	r3, r3, #1
   1129c:	e1c430ba 	strh	r3, [r4, #10]
   112a0:	e59f3474 	ldr	r3, [pc, #1140]	; 1171c <main+0x107c>
   112a4:	e2855001 	add	r5, r5, #1
   112a8:	e58d3004 	str	r3, [sp, #4]
   112ac:	e59f3400 	ldr	r3, [pc, #1024]	; 116b4 <main+0x1014>
   112b0:	e58d3000 	str	r3, [sp]
   112b4:	e3a03000 	mov	r3, #0
   112b8:	ebfffcd0 	bl	10600 <printf@plt>
   112bc:	e5d42003 	ldrb	r2, [r4, #3]
   112c0:	e3520001 	cmp	r2, #1
   112c4:	0a00018e 	beq	11904 <main+0x1264>
   112c8:	e1d430ba 	ldrh	r3, [r4, #10]
   112cc:	e59f1464 	ldr	r1, [pc, #1124]	; 11738 <main+0x1098>
   112d0:	e59f03e0 	ldr	r0, [pc, #992]	; 116b8 <main+0x1018>
   112d4:	e2833001 	add	r3, r3, #1
   112d8:	e1c430ba 	strh	r3, [r4, #10]
   112dc:	e59f343c 	ldr	r3, [pc, #1084]	; 11720 <main+0x1080>
   112e0:	e2855001 	add	r5, r5, #1
   112e4:	e58d3004 	str	r3, [sp, #4]
   112e8:	e59f33c4 	ldr	r3, [pc, #964]	; 116b4 <main+0x1014>
   112ec:	e58d3000 	str	r3, [sp]
   112f0:	e3a03001 	mov	r3, #1
   112f4:	ebfffcc1 	bl	10600 <printf@plt>
   112f8:	e59f43b0 	ldr	r4, [pc, #944]	; 116b0 <main+0x1010>
   112fc:	e0863005 	add	r3, r6, r5
   11300:	e1a02006 	mov	r2, r6
   11304:	e28d1010 	add	r1, sp, #16
   11308:	e59f03ac 	ldr	r0, [pc, #940]	; 116bc <main+0x101c>
   1130c:	ebfffcbb 	bl	10600 <printf@plt>
   11310:	e59f040c 	ldr	r0, [pc, #1036]	; 11724 <main+0x1084>
   11314:	ebfffcc5 	bl	10630 <puts@plt>
   11318:	e1d410bc 	ldrh	r1, [r4, #12]
   1131c:	e1d420ba 	ldrh	r2, [r4, #10]
   11320:	e59f0400 	ldr	r0, [pc, #1024]	; 11728 <main+0x1088>
   11324:	e0822001 	add	r2, r2, r1
   11328:	ebfffcb4 	bl	10600 <printf@plt>
   1132c:	e59f0364 	ldr	r0, [pc, #868]	; 11698 <main+0xff8>
   11330:	ebfffcbe 	bl	10630 <puts@plt>
   11334:	e1d400ba 	ldrh	r0, [r4, #10]
   11338:	e2900000 	adds	r0, r0, #0
   1133c:	13a00001 	movne	r0, #1
   11340:	e28dd040 	add	sp, sp, #64	; 0x40
   11344:	e8bd81f0 	pop	{r4, r5, r6, r7, r8, pc}
   11348:	eb0009af 	bl	13a0c <mcu_task_controller_schedule>
   1134c:	eafffcf6 	b	1072c <main+0x8c>
   11350:	e1d430bc 	ldrh	r3, [r4, #12]
   11354:	e1a02005 	mov	r2, r5
   11358:	e59f13cc 	ldr	r1, [pc, #972]	; 1172c <main+0x108c>
   1135c:	e2833001 	add	r3, r3, #1
   11360:	e59f03d4 	ldr	r0, [pc, #980]	; 1173c <main+0x109c>
   11364:	e1c430bc 	strh	r3, [r4, #12]
   11368:	e3a07001 	mov	r7, #1
   1136c:	ebfffca3 	bl	10600 <printf@plt>
   11370:	eafffd03 	b	10784 <main+0xe4>
   11374:	e1d430bc 	ldrh	r3, [r4, #12]
   11378:	e59f13b0 	ldr	r1, [pc, #944]	; 11730 <main+0x1090>
   1137c:	e59f03b8 	ldr	r0, [pc, #952]	; 1173c <main+0x109c>
   11380:	e2833001 	add	r3, r3, #1
   11384:	e2877001 	add	r7, r7, #1
   11388:	e1c430bc 	strh	r3, [r4, #12]
   1138c:	ebfffc9b 	bl	10600 <printf@plt>
   11390:	eafffd0a 	b	107c0 <main+0x120>
   11394:	e1d430bc 	ldrh	r3, [r4, #12]
   11398:	e59f1394 	ldr	r1, [pc, #916]	; 11734 <main+0x1094>
   1139c:	e59f0398 	ldr	r0, [pc, #920]	; 1173c <main+0x109c>
   113a0:	e2833001 	add	r3, r3, #1
   113a4:	e2877001 	add	r7, r7, #1
   113a8:	e1c430bc 	strh	r3, [r4, #12]
   113ac:	ebfffc93 	bl	10600 <printf@plt>
   113b0:	eafffd11 	b	107fc <main+0x15c>
   113b4:	e1d430bc 	ldrh	r3, [r4, #12]
   113b8:	e59f1378 	ldr	r1, [pc, #888]	; 11738 <main+0x1098>
   113bc:	e59f0378 	ldr	r0, [pc, #888]	; 1173c <main+0x109c>
   113c0:	e2833001 	add	r3, r3, #1
   113c4:	e2877001 	add	r7, r7, #1
   113c8:	e1c430bc 	strh	r3, [r4, #12]
   113cc:	ebfffc8b 	bl	10600 <printf@plt>
   113d0:	eafffd18 	b	10838 <main+0x198>
   113d4:	eb00098c 	bl	13a0c <mcu_task_controller_schedule>
   113d8:	eafffd35 	b	108b4 <main+0x214>
   113dc:	e1d430bc 	ldrh	r3, [r4, #12]
   113e0:	e1a02005 	mov	r2, r5
   113e4:	e59f1340 	ldr	r1, [pc, #832]	; 1172c <main+0x108c>
   113e8:	e2833001 	add	r3, r3, #1
   113ec:	e59f0348 	ldr	r0, [pc, #840]	; 1173c <main+0x109c>
   113f0:	e1c430bc 	strh	r3, [r4, #12]
   113f4:	e3a07000 	mov	r7, #0
   113f8:	ebfffc80 	bl	10600 <printf@plt>
   113fc:	eafffd41 	b	10908 <main+0x268>
   11400:	e1d430bc 	ldrh	r3, [r4, #12]
   11404:	e59f1324 	ldr	r1, [pc, #804]	; 11730 <main+0x1090>
   11408:	e59f032c 	ldr	r0, [pc, #812]	; 1173c <main+0x109c>
   1140c:	e2833001 	add	r3, r3, #1
   11410:	e2855001 	add	r5, r5, #1
   11414:	e1c430bc 	strh	r3, [r4, #12]
   11418:	ebfffc78 	bl	10600 <printf@plt>
   1141c:	eafffd48 	b	10944 <main+0x2a4>
   11420:	e1d430bc 	ldrh	r3, [r4, #12]
   11424:	e59f1308 	ldr	r1, [pc, #776]	; 11734 <main+0x1094>
   11428:	e59f030c 	ldr	r0, [pc, #780]	; 1173c <main+0x109c>
   1142c:	e2833001 	add	r3, r3, #1
   11430:	e2855001 	add	r5, r5, #1
   11434:	e1c430bc 	strh	r3, [r4, #12]
   11438:	ebfffc70 	bl	10600 <printf@plt>
   1143c:	eafffd4f 	b	10980 <main+0x2e0>
   11440:	e1d430bc 	ldrh	r3, [r4, #12]
   11444:	e59f12ec 	ldr	r1, [pc, #748]	; 11738 <main+0x1098>
   11448:	e59f02ec 	ldr	r0, [pc, #748]	; 1173c <main+0x109c>
   1144c:	e2833001 	add	r3, r3, #1
   11450:	e2855001 	add	r5, r5, #1
   11454:	e1c430bc 	strh	r3, [r4, #12]
   11458:	ebfffc68 	bl	10600 <printf@plt>
   1145c:	eafffd56 	b	109bc <main+0x31c>
   11460:	eb000969 	bl	13a0c <mcu_task_controller_schedule>
   11464:	e1a00007 	mov	r0, r7
   11468:	eb000190 	bl	11ab0 <UNITTEST_TIMER_is_up>
   1146c:	e3500000 	cmp	r0, #0
   11470:	0afffd72 	beq	10a40 <main+0x3a0>
   11474:	e287700a 	add	r7, r7, #10
   11478:	e1a01005 	mov	r1, r5
   1147c:	e3a00001 	mov	r0, #1
   11480:	e6ff7077 	uxth	r7, r7
   11484:	eb000eb2 	bl	14f54 <test_driver_set_rx_bytes>
   11488:	eafffd6c 	b	10a40 <main+0x3a0>
   1148c:	e1d430bc 	ldrh	r3, [r4, #12]
   11490:	e1a02007 	mov	r2, r7
   11494:	e59f1290 	ldr	r1, [pc, #656]	; 1172c <main+0x108c>
   11498:	e2833001 	add	r3, r3, #1
   1149c:	e59f0298 	ldr	r0, [pc, #664]	; 1173c <main+0x109c>
   114a0:	e1c430bc 	strh	r3, [r4, #12]
   114a4:	e3a08001 	mov	r8, #1
   114a8:	ebfffc54 	bl	10600 <printf@plt>
   114ac:	eafffd78 	b	10a94 <main+0x3f4>
   114b0:	e1d430bc 	ldrh	r3, [r4, #12]
   114b4:	e59f1274 	ldr	r1, [pc, #628]	; 11730 <main+0x1090>
   114b8:	e59f027c 	ldr	r0, [pc, #636]	; 1173c <main+0x109c>
   114bc:	e2833001 	add	r3, r3, #1
   114c0:	e2888001 	add	r8, r8, #1
   114c4:	e1c430bc 	strh	r3, [r4, #12]
   114c8:	ebfffc4c 	bl	10600 <printf@plt>
   114cc:	eafffd7f 	b	10ad0 <main+0x430>
   114d0:	e1d430bc 	ldrh	r3, [r4, #12]
   114d4:	e59f1258 	ldr	r1, [pc, #600]	; 11734 <main+0x1094>
   114d8:	e59f025c 	ldr	r0, [pc, #604]	; 1173c <main+0x109c>
   114dc:	e2833001 	add	r3, r3, #1
   114e0:	e2888001 	add	r8, r8, #1
   114e4:	e1c430bc 	strh	r3, [r4, #12]
   114e8:	ebfffc44 	bl	10600 <printf@plt>
   114ec:	eafffd86 	b	10b0c <main+0x46c>
   114f0:	e1d430bc 	ldrh	r3, [r4, #12]
   114f4:	e59f123c 	ldr	r1, [pc, #572]	; 11738 <main+0x1098>
   114f8:	e59f023c 	ldr	r0, [pc, #572]	; 1173c <main+0x109c>
   114fc:	e2833001 	add	r3, r3, #1
   11500:	e2888001 	add	r8, r8, #1
   11504:	e1c430bc 	strh	r3, [r4, #12]
   11508:	ebfffc3c 	bl	10600 <printf@plt>
   1150c:	eafffd8d 	b	10b48 <main+0x4a8>
   11510:	eb00093d 	bl	13a0c <mcu_task_controller_schedule>
   11514:	e1a00006 	mov	r0, r6
   11518:	eb000164 	bl	11ab0 <UNITTEST_TIMER_is_up>
   1151c:	e3500000 	cmp	r0, #0
   11520:	0afffdab 	beq	10bd4 <main+0x534>
   11524:	e286600a 	add	r6, r6, #10
   11528:	e1a01005 	mov	r1, r5
   1152c:	e3a00001 	mov	r0, #1
   11530:	e6ff6076 	uxth	r6, r6
   11534:	eb000e86 	bl	14f54 <test_driver_set_rx_bytes>
   11538:	eafffda5 	b	10bd4 <main+0x534>
   1153c:	e1d430bc 	ldrh	r3, [r4, #12]
   11540:	e1a02006 	mov	r2, r6
   11544:	e59f11e0 	ldr	r1, [pc, #480]	; 1172c <main+0x108c>
   11548:	e2833001 	add	r3, r3, #1
   1154c:	e59f01e8 	ldr	r0, [pc, #488]	; 1173c <main+0x109c>
   11550:	e1c430bc 	strh	r3, [r4, #12]
   11554:	e3a07001 	mov	r7, #1
   11558:	ebfffc28 	bl	10600 <printf@plt>
   1155c:	eafffdb1 	b	10c28 <main+0x588>
   11560:	e1d430bc 	ldrh	r3, [r4, #12]
   11564:	e59f11c4 	ldr	r1, [pc, #452]	; 11730 <main+0x1090>
   11568:	e59f01cc 	ldr	r0, [pc, #460]	; 1173c <main+0x109c>
   1156c:	e2833001 	add	r3, r3, #1
   11570:	e2877001 	add	r7, r7, #1
   11574:	e1c430bc 	strh	r3, [r4, #12]
   11578:	ebfffc20 	bl	10600 <printf@plt>
   1157c:	eafffdb8 	b	10c64 <main+0x5c4>
   11580:	e1d430bc 	ldrh	r3, [r4, #12]
   11584:	e59f11a8 	ldr	r1, [pc, #424]	; 11734 <main+0x1094>
   11588:	e59f01ac 	ldr	r0, [pc, #428]	; 1173c <main+0x109c>
   1158c:	e2833001 	add	r3, r3, #1
   11590:	e2877001 	add	r7, r7, #1
   11594:	e1c430bc 	strh	r3, [r4, #12]
   11598:	ebfffc18 	bl	10600 <printf@plt>
   1159c:	eafffdbf 	b	10ca0 <main+0x600>
   115a0:	e1d430bc 	ldrh	r3, [r4, #12]
   115a4:	e59f118c 	ldr	r1, [pc, #396]	; 11738 <main+0x1098>
   115a8:	e59f018c 	ldr	r0, [pc, #396]	; 1173c <main+0x109c>
   115ac:	e2833001 	add	r3, r3, #1
   115b0:	e2877001 	add	r7, r7, #1
   115b4:	e1c430bc 	strh	r3, [r4, #12]
   115b8:	ebfffc10 	bl	10600 <printf@plt>
   115bc:	eafffdc6 	b	10cdc <main+0x63c>
   115c0:	eb000911 	bl	13a0c <mcu_task_controller_schedule>
   115c4:	e3540000 	cmp	r4, #0
   115c8:	1afffddc 	bne	10d40 <main+0x6a0>
   115cc:	e3a0007d 	mov	r0, #125	; 0x7d
   115d0:	eb000136 	bl	11ab0 <UNITTEST_TIMER_is_up>
   115d4:	e2504000 	subs	r4, r0, #0
   115d8:	0afffdd8 	beq	10d40 <main+0x6a0>
   115dc:	eb0006ac 	bl	13094 <READY_INOUT_drive_low>
   115e0:	e3a04001 	mov	r4, #1
   115e4:	eafffdd5 	b	10d40 <main+0x6a0>
   115e8:	e1d430bc 	ldrh	r3, [r4, #12]
   115ec:	e1a02006 	mov	r2, r6
   115f0:	e59f1134 	ldr	r1, [pc, #308]	; 1172c <main+0x108c>
   115f4:	e2833001 	add	r3, r3, #1
   115f8:	e59f013c 	ldr	r0, [pc, #316]	; 1173c <main+0x109c>
   115fc:	e1c430bc 	strh	r3, [r4, #12]
   11600:	e3a07001 	mov	r7, #1
   11604:	ebfffbfd 	bl	10600 <printf@plt>
   11608:	eafffde2 	b	10d98 <main+0x6f8>
   1160c:	e1d430bc 	ldrh	r3, [r4, #12]
   11610:	e59f1118 	ldr	r1, [pc, #280]	; 11730 <main+0x1090>
   11614:	e59f0120 	ldr	r0, [pc, #288]	; 1173c <main+0x109c>
   11618:	e2833001 	add	r3, r3, #1
   1161c:	e2877001 	add	r7, r7, #1
   11620:	e1c430bc 	strh	r3, [r4, #12]
   11624:	ebfffbf5 	bl	10600 <printf@plt>
   11628:	eafffde9 	b	10dd4 <main+0x734>
   1162c:	e1d430bc 	ldrh	r3, [r4, #12]
   11630:	e59f10fc 	ldr	r1, [pc, #252]	; 11734 <main+0x1094>
   11634:	e59f0100 	ldr	r0, [pc, #256]	; 1173c <main+0x109c>
   11638:	e2833001 	add	r3, r3, #1
   1163c:	e2877001 	add	r7, r7, #1
   11640:	e1c430bc 	strh	r3, [r4, #12]
   11644:	ebfffbed 	bl	10600 <printf@plt>
   11648:	eafffdf0 	b	10e10 <main+0x770>
   1164c:	e1d430bc 	ldrh	r3, [r4, #12]
   11650:	e59f10e0 	ldr	r1, [pc, #224]	; 11738 <main+0x1098>
   11654:	e59f00e0 	ldr	r0, [pc, #224]	; 1173c <main+0x109c>
   11658:	e2833001 	add	r3, r3, #1
   1165c:	e2877001 	add	r7, r7, #1
   11660:	e1c430bc 	strh	r3, [r4, #12]
   11664:	ebfffbe5 	bl	10600 <printf@plt>
   11668:	eafffdf7 	b	10e4c <main+0x7ac>
   1166c:	eb0008e6 	bl	13a0c <mcu_task_controller_schedule>
   11670:	e1a00006 	mov	r0, r6
   11674:	eb00010d 	bl	11ab0 <UNITTEST_TIMER_is_up>
   11678:	e3500000 	cmp	r0, #0
   1167c:	0afffe14 	beq	10ed4 <main+0x834>
   11680:	e286600a 	add	r6, r6, #10
   11684:	e1a01005 	mov	r1, r5
   11688:	e3a00001 	mov	r0, #1
   1168c:	e6ff6076 	uxth	r6, r6
   11690:	eb000e2f 	bl	14f54 <test_driver_set_rx_bytes>
   11694:	eafffe0e 	b	10ed4 <main+0x834>
   11698:	00015267 	.word	0x00015267
   1169c:	00015232 	.word	0x00015232
   116a0:	00015261 	.word	0x00015261
   116a4:	000152c3 	.word	0x000152c3
   116a8:	00015037 	.word	0x00015037
   116ac:	00026044 	.word	0x00026044
   116b0:	000261c8 	.word	0x000261c8
   116b4:	000150a9 	.word	0x000150a9
   116b8:	00015076 	.word	0x00015076
   116bc:	000151d2 	.word	0x000151d2
   116c0:	000152e2 	.word	0x000152e2
   116c4:	0001502c 	.word	0x0001502c
   116c8:	0001530e 	.word	0x0001530e
   116cc:	0001502e 	.word	0x0001502e
   116d0:	00000122 	.word	0x00000122
   116d4:	00000123 	.word	0x00000123
   116d8:	00000125 	.word	0x00000125
   116dc:	00015338 	.word	0x00015338
   116e0:	00000142 	.word	0x00000142
   116e4:	00000143 	.word	0x00000143
   116e8:	00000145 	.word	0x00000145
   116ec:	00015359 	.word	0x00015359
   116f0:	00015031 	.word	0x00015031
   116f4:	00000165 	.word	0x00000165
   116f8:	00000166 	.word	0x00000166
   116fc:	00000167 	.word	0x00000167
   11700:	00015387 	.word	0x00015387
   11704:	00000186 	.word	0x00000186
   11708:	00000187 	.word	0x00000187
   1170c:	00000189 	.word	0x00000189
   11710:	000153b5 	.word	0x000153b5
   11714:	00015033 	.word	0x00015033
   11718:	000001ad 	.word	0x000001ad
   1171c:	000001ae 	.word	0x000001ae
   11720:	000001af 	.word	0x000001af
   11724:	00015266 	.word	0x00015266
   11728:	00015299 	.word	0x00015299
   1172c:	0001505b 	.word	0x0001505b
   11730:	000150d9 	.word	0x000150d9
   11734:	000150f4 	.word	0x000150f4
   11738:	000151aa 	.word	0x000151aa
   1173c:	000150c8 	.word	0x000150c8
   11740:	e1d430bc 	ldrh	r3, [r4, #12]
   11744:	e1a02005 	mov	r2, r5
   11748:	e51f1024 	ldr	r1, [pc, #-36]	; 1172c <main+0x108c>
   1174c:	e2833001 	add	r3, r3, #1
   11750:	e51f001c 	ldr	r0, [pc, #-28]	; 1173c <main+0x109c>
   11754:	e1c430bc 	strh	r3, [r4, #12]
   11758:	e3a06001 	mov	r6, #1
   1175c:	ebfffba7 	bl	10600 <printf@plt>
   11760:	eafffdf0 	b	10f28 <main+0x888>
   11764:	e1d430bc 	ldrh	r3, [r4, #12]
   11768:	e51f1040 	ldr	r1, [pc, #-64]	; 11730 <main+0x1090>
   1176c:	e51f0038 	ldr	r0, [pc, #-56]	; 1173c <main+0x109c>
   11770:	e2833001 	add	r3, r3, #1
   11774:	e2866001 	add	r6, r6, #1
   11778:	e1c430bc 	strh	r3, [r4, #12]
   1177c:	ebfffb9f 	bl	10600 <printf@plt>
   11780:	eafffdf7 	b	10f64 <main+0x8c4>
   11784:	e1d430bc 	ldrh	r3, [r4, #12]
   11788:	e51f105c 	ldr	r1, [pc, #-92]	; 11734 <main+0x1094>
   1178c:	e51f0058 	ldr	r0, [pc, #-88]	; 1173c <main+0x109c>
   11790:	e2833001 	add	r3, r3, #1
   11794:	e2866001 	add	r6, r6, #1
   11798:	e1c430bc 	strh	r3, [r4, #12]
   1179c:	ebfffb97 	bl	10600 <printf@plt>
   117a0:	eafffdfe 	b	10fa0 <main+0x900>
   117a4:	e1d430bc 	ldrh	r3, [r4, #12]
   117a8:	e51f1078 	ldr	r1, [pc, #-120]	; 11738 <main+0x1098>
   117ac:	e51f0078 	ldr	r0, [pc, #-120]	; 1173c <main+0x109c>
   117b0:	e2833001 	add	r3, r3, #1
   117b4:	e2866001 	add	r6, r6, #1
   117b8:	e1c430bc 	strh	r3, [r4, #12]
   117bc:	ebfffb8f 	bl	10600 <printf@plt>
   117c0:	eafffe05 	b	10fdc <main+0x93c>
   117c4:	eb000890 	bl	13a0c <mcu_task_controller_schedule>
   117c8:	e1a00005 	mov	r0, r5
   117cc:	eb0000b7 	bl	11ab0 <UNITTEST_TIMER_is_up>
   117d0:	e3500000 	cmp	r0, #0
   117d4:	0afffe21 	beq	11060 <main+0x9c0>
   117d8:	e285500a 	add	r5, r5, #10
   117dc:	e28d100c 	add	r1, sp, #12
   117e0:	e3a00001 	mov	r0, #1
   117e4:	e6ff5075 	uxth	r5, r5
   117e8:	eb000dd9 	bl	14f54 <test_driver_set_rx_bytes>
   117ec:	eafffe1b 	b	11060 <main+0x9c0>
   117f0:	e1d430bc 	ldrh	r3, [r4, #12]
   117f4:	e1a02005 	mov	r2, r5
   117f8:	e51f10d4 	ldr	r1, [pc, #-212]	; 1172c <main+0x108c>
   117fc:	e2833001 	add	r3, r3, #1
   11800:	e51f00cc 	ldr	r0, [pc, #-204]	; 1173c <main+0x109c>
   11804:	e1c430bc 	strh	r3, [r4, #12]
   11808:	e3a06001 	mov	r6, #1
   1180c:	ebfffb7b 	bl	10600 <printf@plt>
   11810:	eafffe27 	b	110b4 <main+0xa14>
   11814:	e1d430bc 	ldrh	r3, [r4, #12]
   11818:	e51f10f0 	ldr	r1, [pc, #-240]	; 11730 <main+0x1090>
   1181c:	e51f00e8 	ldr	r0, [pc, #-232]	; 1173c <main+0x109c>
   11820:	e2833001 	add	r3, r3, #1
   11824:	e2866001 	add	r6, r6, #1
   11828:	e1c430bc 	strh	r3, [r4, #12]
   1182c:	ebfffb73 	bl	10600 <printf@plt>
   11830:	eafffe2e 	b	110f0 <main+0xa50>
   11834:	e1d430bc 	ldrh	r3, [r4, #12]
   11838:	e51f110c 	ldr	r1, [pc, #-268]	; 11734 <main+0x1094>
   1183c:	e51f0108 	ldr	r0, [pc, #-264]	; 1173c <main+0x109c>
   11840:	e2833001 	add	r3, r3, #1
   11844:	e2866001 	add	r6, r6, #1
   11848:	e1c430bc 	strh	r3, [r4, #12]
   1184c:	ebfffb6b 	bl	10600 <printf@plt>
   11850:	eafffe35 	b	1112c <main+0xa8c>
   11854:	e1d430bc 	ldrh	r3, [r4, #12]
   11858:	e51f1128 	ldr	r1, [pc, #-296]	; 11738 <main+0x1098>
   1185c:	e51f0128 	ldr	r0, [pc, #-296]	; 1173c <main+0x109c>
   11860:	e2833001 	add	r3, r3, #1
   11864:	e2866001 	add	r6, r6, #1
   11868:	e1c430bc 	strh	r3, [r4, #12]
   1186c:	ebfffb63 	bl	10600 <printf@plt>
   11870:	eafffe3c 	b	11168 <main+0xac8>
   11874:	eb000864 	bl	13a0c <mcu_task_controller_schedule>
   11878:	e1a00005 	mov	r0, r5
   1187c:	eb00008b 	bl	11ab0 <UNITTEST_TIMER_is_up>
   11880:	e3500000 	cmp	r0, #0
   11884:	0afffe59 	beq	111f0 <main+0xb50>
   11888:	e285500a 	add	r5, r5, #10
   1188c:	e28d100c 	add	r1, sp, #12
   11890:	e3a00001 	mov	r0, #1
   11894:	e6ff5075 	uxth	r5, r5
   11898:	eb000dad 	bl	14f54 <test_driver_set_rx_bytes>
   1189c:	eafffe53 	b	111f0 <main+0xb50>
   118a0:	e1d430bc 	ldrh	r3, [r4, #12]
   118a4:	e1a02005 	mov	r2, r5
   118a8:	e51f1184 	ldr	r1, [pc, #-388]	; 1172c <main+0x108c>
   118ac:	e2833001 	add	r3, r3, #1
   118b0:	e51f017c 	ldr	r0, [pc, #-380]	; 1173c <main+0x109c>
   118b4:	e1c430bc 	strh	r3, [r4, #12]
   118b8:	e3a06001 	mov	r6, #1
   118bc:	ebfffb4f 	bl	10600 <printf@plt>
   118c0:	eafffe5f 	b	11244 <main+0xba4>
   118c4:	e1d430bc 	ldrh	r3, [r4, #12]
   118c8:	e51f11a0 	ldr	r1, [pc, #-416]	; 11730 <main+0x1090>
   118cc:	e51f0198 	ldr	r0, [pc, #-408]	; 1173c <main+0x109c>
   118d0:	e2833001 	add	r3, r3, #1
   118d4:	e2866001 	add	r6, r6, #1
   118d8:	e1c430bc 	strh	r3, [r4, #12]
   118dc:	ebfffb47 	bl	10600 <printf@plt>
   118e0:	eafffe66 	b	11280 <main+0xbe0>
   118e4:	e1d430bc 	ldrh	r3, [r4, #12]
   118e8:	e51f11bc 	ldr	r1, [pc, #-444]	; 11734 <main+0x1094>
   118ec:	e51f01b8 	ldr	r0, [pc, #-440]	; 1173c <main+0x109c>
   118f0:	e2833001 	add	r3, r3, #1
   118f4:	e2866001 	add	r6, r6, #1
   118f8:	e1c430bc 	strh	r3, [r4, #12]
   118fc:	ebfffb3f 	bl	10600 <printf@plt>
   11900:	eafffe6d 	b	112bc <main+0xc1c>
   11904:	e1d430bc 	ldrh	r3, [r4, #12]
   11908:	e51f11d8 	ldr	r1, [pc, #-472]	; 11738 <main+0x1098>
   1190c:	e51f01d8 	ldr	r0, [pc, #-472]	; 1173c <main+0x109c>
   11910:	e2833001 	add	r3, r3, #1
   11914:	e2866001 	add	r6, r6, #1
   11918:	e1c430bc 	strh	r3, [r4, #12]
   1191c:	ebfffb37 	bl	10600 <printf@plt>
   11920:	eafffe74 	b	112f8 <main+0xc58>

00011924 <_start>:
   11924:	e3a0b000 	mov	fp, #0
   11928:	e3a0e000 	mov	lr, #0
   1192c:	e49d1004 	pop	{r1}		; (ldr r1, [sp], #4)
   11930:	e1a0200d 	mov	r2, sp
   11934:	e52d2004 	push	{r2}		; (str r2, [sp, #-4]!)
   11938:	e52d0004 	push	{r0}		; (str r0, [sp, #-4]!)
   1193c:	e59fc010 	ldr	ip, [pc, #16]	; 11954 <_start+0x30>
   11940:	e52dc004 	push	{ip}		; (str ip, [sp, #-4]!)
   11944:	e59f000c 	ldr	r0, [pc, #12]	; 11958 <_start+0x34>
   11948:	e59f300c 	ldr	r3, [pc, #12]	; 1195c <_start+0x38>
   1194c:	ebfffb3a 	bl	1063c <__libc_start_main@plt>
   11950:	ebfffb4e 	bl	10690 <abort@plt>
   11954:	00015020 	.word	0x00015020
   11958:	000106a0 	.word	0x000106a0
   1195c:	00014fc0 	.word	0x00014fc0

00011960 <call_weak_fn>:
   11960:	e59f3014 	ldr	r3, [pc, #20]	; 1197c <call_weak_fn+0x1c>
   11964:	e59f2014 	ldr	r2, [pc, #20]	; 11980 <call_weak_fn+0x20>
   11968:	e08f3003 	add	r3, pc, r3
   1196c:	e7932002 	ldr	r2, [r3, r2]
   11970:	e3520000 	cmp	r2, #0
   11974:	012fff1e 	bxeq	lr
   11978:	eafffb32 	b	10648 <__gmon_start__@plt>
   1197c:	00014690 	.word	0x00014690
   11980:	00000040 	.word	0x00000040

00011984 <deregister_tm_clones>:
   11984:	e59f0018 	ldr	r0, [pc, #24]	; 119a4 <deregister_tm_clones+0x20>
   11988:	e59f3018 	ldr	r3, [pc, #24]	; 119a8 <deregister_tm_clones+0x24>
   1198c:	e1530000 	cmp	r3, r0
   11990:	012fff1e 	bxeq	lr
   11994:	e59f3010 	ldr	r3, [pc, #16]	; 119ac <deregister_tm_clones+0x28>
   11998:	e3530000 	cmp	r3, #0
   1199c:	012fff1e 	bxeq	lr
   119a0:	e12fff13 	bx	r3
   119a4:	000261c4 	.word	0x000261c4
   119a8:	000261c4 	.word	0x000261c4
   119ac:	00000000 	.word	0x00000000

000119b0 <register_tm_clones>:
   119b0:	e59f0024 	ldr	r0, [pc, #36]	; 119dc <register_tm_clones+0x2c>
   119b4:	e59f1024 	ldr	r1, [pc, #36]	; 119e0 <register_tm_clones+0x30>
   119b8:	e0411000 	sub	r1, r1, r0
   119bc:	e1a01141 	asr	r1, r1, #2
   119c0:	e0811fa1 	add	r1, r1, r1, lsr #31
   119c4:	e1b010c1 	asrs	r1, r1, #1
   119c8:	012fff1e 	bxeq	lr
   119cc:	e59f3010 	ldr	r3, [pc, #16]	; 119e4 <register_tm_clones+0x34>
   119d0:	e3530000 	cmp	r3, #0
   119d4:	012fff1e 	bxeq	lr
   119d8:	e12fff13 	bx	r3
   119dc:	000261c4 	.word	0x000261c4
   119e0:	000261c4 	.word	0x000261c4
   119e4:	00000000 	.word	0x00000000

000119e8 <__do_global_dtors_aux>:
   119e8:	e92d4010 	push	{r4, lr}
   119ec:	e59f4018 	ldr	r4, [pc, #24]	; 11a0c <__do_global_dtors_aux+0x24>
   119f0:	e5d43000 	ldrb	r3, [r4]
   119f4:	e3530000 	cmp	r3, #0
   119f8:	18bd8010 	popne	{r4, pc}
   119fc:	ebffffe0 	bl	11984 <deregister_tm_clones>
   11a00:	e3a03001 	mov	r3, #1
   11a04:	e5c43000 	strb	r3, [r4]
   11a08:	e8bd8010 	pop	{r4, pc}
   11a0c:	000261c4 	.word	0x000261c4

00011a10 <frame_dummy>:
   11a10:	eaffffe6 	b	119b0 <register_tm_clones>

00011a14 <unittest_reset_counter>:
   11a14:	e59f3014 	ldr	r3, [pc, #20]	; 11a30 <unittest_reset_counter+0x1c>
   11a18:	e3a02000 	mov	r2, #0
   11a1c:	e5c32000 	strb	r2, [r3]
   11a20:	e5c32001 	strb	r2, [r3, #1]
   11a24:	e5c32002 	strb	r2, [r3, #2]
   11a28:	e5c32003 	strb	r2, [r3, #3]
   11a2c:	e12fff1e 	bx	lr
   11a30:	000261c8 	.word	0x000261c8

00011a34 <unittest_RPI_PROTOCOL_LEAVE_SLEEP_SLOT_CALLBACK>:
   11a34:	e59f200c 	ldr	r2, [pc, #12]	; 11a48 <unittest_RPI_PROTOCOL_LEAVE_SLEEP_SLOT_CALLBACK+0x14>
   11a38:	e5d23000 	ldrb	r3, [r2]
   11a3c:	e2833001 	add	r3, r3, #1
   11a40:	e5c23000 	strb	r3, [r2]
   11a44:	e12fff1e 	bx	lr
   11a48:	000261c8 	.word	0x000261c8

00011a4c <unittest_RPI_PROTOCOL_ENTER_SLEEP_SLOT_CALLBACK>:
   11a4c:	e59f200c 	ldr	r2, [pc, #12]	; 11a60 <unittest_RPI_PROTOCOL_ENTER_SLEEP_SLOT_CALLBACK+0x14>
   11a50:	e5d23001 	ldrb	r3, [r2, #1]
   11a54:	e2833001 	add	r3, r3, #1
   11a58:	e5c23001 	strb	r3, [r2, #1]
   11a5c:	e12fff1e 	bx	lr
   11a60:	000261c8 	.word	0x000261c8

00011a64 <unittest_RPI_PROTOCOL_COMMAND_RECEIVED_SLOT_CALLBACK>:
   11a64:	e59f3010 	ldr	r3, [pc, #16]	; 11a7c <unittest_RPI_PROTOCOL_COMMAND_RECEIVED_SLOT_CALLBACK+0x18>
   11a68:	e5d32002 	ldrb	r2, [r3, #2]
   11a6c:	e5830004 	str	r0, [r3, #4]
   11a70:	e2822001 	add	r2, r2, #1
   11a74:	e5c32002 	strb	r2, [r3, #2]
   11a78:	e12fff1e 	bx	lr
   11a7c:	000261c8 	.word	0x000261c8

00011a80 <unittest_RPI_PROTOCOL_INVALID_COMMAND_RECEIVED_SLOT_CALLBACK>:
   11a80:	e59f200c 	ldr	r2, [pc, #12]	; 11a94 <unittest_RPI_PROTOCOL_INVALID_COMMAND_RECEIVED_SLOT_CALLBACK+0x14>
   11a84:	e5d23003 	ldrb	r3, [r2, #3]
   11a88:	e2833001 	add	r3, r3, #1
   11a8c:	e5c23003 	strb	r3, [r2, #3]
   11a90:	e12fff1e 	bx	lr
   11a94:	000261c8 	.word	0x000261c8

00011a98 <UNITTEST_TIMER_start>:
   11a98:	e92d4010 	push	{r4, lr}
   11a9c:	eb0007a7 	bl	13940 <time_mgmnt_gettime_u16>
   11aa0:	e59f3004 	ldr	r3, [pc, #4]	; 11aac <UNITTEST_TIMER_start+0x14>
   11aa4:	e1c300b8 	strh	r0, [r3, #8]
   11aa8:	e8bd8010 	pop	{r4, pc}
   11aac:	000261c8 	.word	0x000261c8

00011ab0 <UNITTEST_TIMER_is_up>:
   11ab0:	e59f3008 	ldr	r3, [pc, #8]	; 11ac0 <UNITTEST_TIMER_is_up+0x10>
   11ab4:	e1a01000 	mov	r1, r0
   11ab8:	e1d300b8 	ldrh	r0, [r3, #8]
   11abc:	ea0007a2 	b	1394c <time_mgmnt_istimeup_u16>
   11ac0:	000261c8 	.word	0x000261c8

00011ac4 <UNITTEST_rpi_protocol_receive_response>:
   11ac4:	e92d4ff0 	push	{r4, r5, r6, r7, r8, r9, sl, fp, lr}
   11ac8:	e24ddf51 	sub	sp, sp, #324	; 0x144
   11acc:	e59f3444 	ldr	r3, [pc, #1092]	; 11f18 <UNITTEST_rpi_protocol_receive_response+0x454>
   11ad0:	e28d2010 	add	r2, sp, #16
   11ad4:	e283e028 	add	lr, r3, #40	; 0x28
   11ad8:	e1a08002 	mov	r8, r2
   11adc:	e5930000 	ldr	r0, [r3]
   11ae0:	e5931004 	ldr	r1, [r3, #4]
   11ae4:	e1a0c002 	mov	ip, r2
   11ae8:	e2833008 	add	r3, r3, #8
   11aec:	e153000e 	cmp	r3, lr
   11af0:	e8ac0003 	stmia	ip!, {r0, r1}
   11af4:	e1a0200c 	mov	r2, ip
   11af8:	1afffff7 	bne	11adc <UNITTEST_rpi_protocol_receive_response+0x18>
   11afc:	e5930000 	ldr	r0, [r3]
   11b00:	e5d33004 	ldrb	r3, [r3, #4]
   11b04:	e59f4410 	ldr	r4, [pc, #1040]	; 11f1c <UNITTEST_rpi_protocol_receive_response+0x458>
   11b08:	e58c0000 	str	r0, [ip]
   11b0c:	e5cc3004 	strb	r3, [ip, #4]
   11b10:	e1a01008 	mov	r1, r8
   11b14:	e59f0404 	ldr	r0, [pc, #1028]	; 11f20 <UNITTEST_rpi_protocol_receive_response+0x45c>
   11b18:	ebfffab8 	bl	10600 <printf@plt>
   11b1c:	ebffffbc 	bl	11a14 <unittest_reset_counter>
   11b20:	ebffffdc 	bl	11a98 <UNITTEST_TIMER_start>
   11b24:	e5943004 	ldr	r3, [r4, #4]
   11b28:	e3530000 	cmp	r3, #0
   11b2c:	0a000014 	beq	11b84 <UNITTEST_rpi_protocol_receive_response+0xc0>
   11b30:	e5933010 	ldr	r3, [r3, #16]
   11b34:	e5933000 	ldr	r3, [r3]
   11b38:	e12fff33 	blx	r3
   11b3c:	e5943004 	ldr	r3, [r4, #4]
   11b40:	e3a00005 	mov	r0, #5
   11b44:	e5933010 	ldr	r3, [r3, #16]
   11b48:	e5933004 	ldr	r3, [r3, #4]
   11b4c:	e12fff33 	blx	r3
   11b50:	e5943004 	ldr	r3, [r4, #4]
   11b54:	e3a00000 	mov	r0, #0
   11b58:	e5933010 	ldr	r3, [r3, #16]
   11b5c:	e5933004 	ldr	r3, [r3, #4]
   11b60:	e12fff33 	blx	r3
   11b64:	e5943004 	ldr	r3, [r4, #4]
   11b68:	e5933010 	ldr	r3, [r3, #16]
   11b6c:	e5933014 	ldr	r3, [r3, #20]
   11b70:	e12fff33 	blx	r3
   11b74:	e5943004 	ldr	r3, [r4, #4]
   11b78:	e3a00000 	mov	r0, #0
   11b7c:	e5933008 	ldr	r3, [r3, #8]
   11b80:	e12fff33 	blx	r3
   11b84:	e3a05000 	mov	r5, #0
   11b88:	e59f3394 	ldr	r3, [pc, #916]	; 11f24 <UNITTEST_rpi_protocol_receive_response+0x460>
   11b8c:	e1a07005 	mov	r7, r5
   11b90:	e58d3008 	str	r3, [sp, #8]
   11b94:	e5cd500c 	strb	r5, [sp, #12]
   11b98:	e6ef9075 	uxtb	r9, r5
   11b9c:	e3a000fa 	mov	r0, #250	; 0xfa
   11ba0:	ebffffc2 	bl	11ab0 <UNITTEST_TIMER_is_up>
   11ba4:	e3500000 	cmp	r0, #0
   11ba8:	0a000088 	beq	11dd0 <UNITTEST_rpi_protocol_receive_response+0x30c>
   11bac:	e5d45000 	ldrb	r5, [r4]
   11bb0:	e3550000 	cmp	r5, #0
   11bb4:	0a00008f 	beq	11df8 <UNITTEST_rpi_protocol_receive_response+0x334>
   11bb8:	e1d430ba 	ldrh	r3, [r4, #10]
   11bbc:	e1a02005 	mov	r2, r5
   11bc0:	e59f1360 	ldr	r1, [pc, #864]	; 11f28 <UNITTEST_rpi_protocol_receive_response+0x464>
   11bc4:	e2833001 	add	r3, r3, #1
   11bc8:	e1c430ba 	strh	r3, [r4, #10]
   11bcc:	e3a030fd 	mov	r3, #253	; 0xfd
   11bd0:	e58d3004 	str	r3, [sp, #4]
   11bd4:	e59f3350 	ldr	r3, [pc, #848]	; 11f2c <UNITTEST_rpi_protocol_receive_response+0x468>
   11bd8:	e59f0350 	ldr	r0, [pc, #848]	; 11f30 <UNITTEST_rpi_protocol_receive_response+0x46c>
   11bdc:	e58d3000 	str	r3, [sp]
   11be0:	e3a03000 	mov	r3, #0
   11be4:	ebfffa85 	bl	10600 <printf@plt>
   11be8:	e3a05001 	mov	r5, #1
   11bec:	e3a06000 	mov	r6, #0
   11bf0:	e5d42001 	ldrb	r2, [r4, #1]
   11bf4:	e3520000 	cmp	r2, #0
   11bf8:	0a000087 	beq	11e1c <UNITTEST_rpi_protocol_receive_response+0x358>
   11bfc:	e1d430ba 	ldrh	r3, [r4, #10]
   11c00:	e59f132c 	ldr	r1, [pc, #812]	; 11f34 <UNITTEST_rpi_protocol_receive_response+0x470>
   11c04:	e59f0324 	ldr	r0, [pc, #804]	; 11f30 <UNITTEST_rpi_protocol_receive_response+0x46c>
   11c08:	e2833001 	add	r3, r3, #1
   11c0c:	e1c430ba 	strh	r3, [r4, #10]
   11c10:	e3a030fe 	mov	r3, #254	; 0xfe
   11c14:	e58d3004 	str	r3, [sp, #4]
   11c18:	e59f330c 	ldr	r3, [pc, #780]	; 11f2c <UNITTEST_rpi_protocol_receive_response+0x468>
   11c1c:	e2855001 	add	r5, r5, #1
   11c20:	e58d3000 	str	r3, [sp]
   11c24:	e3a03000 	mov	r3, #0
   11c28:	ebfffa74 	bl	10600 <printf@plt>
   11c2c:	e5d42002 	ldrb	r2, [r4, #2]
   11c30:	e3520000 	cmp	r2, #0
   11c34:	0a000080 	beq	11e3c <UNITTEST_rpi_protocol_receive_response+0x378>
   11c38:	e1d430ba 	ldrh	r3, [r4, #10]
   11c3c:	e59f12f4 	ldr	r1, [pc, #756]	; 11f38 <UNITTEST_rpi_protocol_receive_response+0x474>
   11c40:	e59f02e8 	ldr	r0, [pc, #744]	; 11f30 <UNITTEST_rpi_protocol_receive_response+0x46c>
   11c44:	e2833001 	add	r3, r3, #1
   11c48:	e1c430ba 	strh	r3, [r4, #10]
   11c4c:	e3a030ff 	mov	r3, #255	; 0xff
   11c50:	e58d3004 	str	r3, [sp, #4]
   11c54:	e59f32d0 	ldr	r3, [pc, #720]	; 11f2c <UNITTEST_rpi_protocol_receive_response+0x468>
   11c58:	e2855001 	add	r5, r5, #1
   11c5c:	e58d3000 	str	r3, [sp]
   11c60:	e3a03000 	mov	r3, #0
   11c64:	ebfffa65 	bl	10600 <printf@plt>
   11c68:	e3590001 	cmp	r9, #1
   11c6c:	0a00007a 	beq	11e5c <UNITTEST_rpi_protocol_receive_response+0x398>
   11c70:	e1d430ba 	ldrh	r3, [r4, #10]
   11c74:	e1a02009 	mov	r2, r9
   11c78:	e59f12bc 	ldr	r1, [pc, #700]	; 11f3c <UNITTEST_rpi_protocol_receive_response+0x478>
   11c7c:	e2833001 	add	r3, r3, #1
   11c80:	e1c430ba 	strh	r3, [r4, #10]
   11c84:	e3a03c01 	mov	r3, #256	; 0x100
   11c88:	e58d3004 	str	r3, [sp, #4]
   11c8c:	e59f3298 	ldr	r3, [pc, #664]	; 11f2c <UNITTEST_rpi_protocol_receive_response+0x468>
   11c90:	e59f0298 	ldr	r0, [pc, #664]	; 11f30 <UNITTEST_rpi_protocol_receive_response+0x46c>
   11c94:	e58d3000 	str	r3, [sp]
   11c98:	e3a03001 	mov	r3, #1
   11c9c:	e2855001 	add	r5, r5, #1
   11ca0:	ebfffa56 	bl	10600 <printf@plt>
   11ca4:	e3570005 	cmp	r7, #5
   11ca8:	0a000074 	beq	11e80 <UNITTEST_rpi_protocol_receive_response+0x3bc>
   11cac:	e1d430ba 	ldrh	r3, [r4, #10]
   11cb0:	e1a02007 	mov	r2, r7
   11cb4:	e59f1284 	ldr	r1, [pc, #644]	; 11f40 <UNITTEST_rpi_protocol_receive_response+0x47c>
   11cb8:	e2833001 	add	r3, r3, #1
   11cbc:	e1c430ba 	strh	r3, [r4, #10]
   11cc0:	e59f327c 	ldr	r3, [pc, #636]	; 11f44 <UNITTEST_rpi_protocol_receive_response+0x480>
   11cc4:	e59f0264 	ldr	r0, [pc, #612]	; 11f30 <UNITTEST_rpi_protocol_receive_response+0x46c>
   11cc8:	e58d3004 	str	r3, [sp, #4]
   11ccc:	e59f3258 	ldr	r3, [pc, #600]	; 11f2c <UNITTEST_rpi_protocol_receive_response+0x468>
   11cd0:	e2855001 	add	r5, r5, #1
   11cd4:	e58d3000 	str	r3, [sp]
   11cd8:	e3a03005 	mov	r3, #5
   11cdc:	ebfffa47 	bl	10600 <printf@plt>
   11ce0:	e28d7040 	add	r7, sp, #64	; 0x40
   11ce4:	e28d1008 	add	r1, sp, #8
   11ce8:	e1a02007 	mov	r2, r7
   11cec:	e3a03005 	mov	r3, #5
   11cf0:	e4d2c001 	ldrb	ip, [r2], #1
   11cf4:	e4d10001 	ldrb	r0, [r1], #1
   11cf8:	e15c0000 	cmp	ip, r0
   11cfc:	0a000068 	beq	11ea4 <UNITTEST_rpi_protocol_receive_response+0x3e0>
   11d00:	e59f3240 	ldr	r3, [pc, #576]	; 11f48 <UNITTEST_rpi_protocol_receive_response+0x484>
   11d04:	e59f2220 	ldr	r2, [pc, #544]	; 11f2c <UNITTEST_rpi_protocol_receive_response+0x468>
   11d08:	e59f123c 	ldr	r1, [pc, #572]	; 11f4c <UNITTEST_rpi_protocol_receive_response+0x488>
   11d0c:	e59f023c 	ldr	r0, [pc, #572]	; 11f50 <UNITTEST_rpi_protocol_receive_response+0x48c>
   11d10:	ebfffa3a 	bl	10600 <printf@plt>
   11d14:	e59f0238 	ldr	r0, [pc, #568]	; 11f54 <UNITTEST_rpi_protocol_receive_response+0x490>
   11d18:	ebfffa38 	bl	10600 <printf@plt>
   11d1c:	e59fb234 	ldr	fp, [pc, #564]	; 11f58 <UNITTEST_rpi_protocol_receive_response+0x494>
   11d20:	e1a0a007 	mov	sl, r7
   11d24:	e3a09005 	mov	r9, #5
   11d28:	e4da1001 	ldrb	r1, [sl], #1
   11d2c:	e1a0000b 	mov	r0, fp
   11d30:	e2499001 	sub	r9, r9, #1
   11d34:	ebfffa31 	bl	10600 <printf@plt>
   11d38:	e21990ff 	ands	r9, r9, #255	; 0xff
   11d3c:	1afffff9 	bne	11d28 <UNITTEST_rpi_protocol_receive_response+0x264>
   11d40:	e59f0214 	ldr	r0, [pc, #532]	; 11f5c <UNITTEST_rpi_protocol_receive_response+0x498>
   11d44:	ebfffa2d 	bl	10600 <printf@plt>
   11d48:	e59fa208 	ldr	sl, [pc, #520]	; 11f58 <UNITTEST_rpi_protocol_receive_response+0x494>
   11d4c:	e3a09005 	mov	r9, #5
   11d50:	e4d71001 	ldrb	r1, [r7], #1
   11d54:	e1a0000a 	mov	r0, sl
   11d58:	e2499001 	sub	r9, r9, #1
   11d5c:	ebfffa27 	bl	10600 <printf@plt>
   11d60:	e21990ff 	ands	r9, r9, #255	; 0xff
   11d64:	1afffff9 	bne	11d50 <UNITTEST_rpi_protocol_receive_response+0x28c>
   11d68:	e1d430ba 	ldrh	r3, [r4, #10]
   11d6c:	e2855001 	add	r5, r5, #1
   11d70:	e2833001 	add	r3, r3, #1
   11d74:	e1c430ba 	strh	r3, [r4, #10]
   11d78:	e5d42003 	ldrb	r2, [r4, #3]
   11d7c:	e3520000 	cmp	r2, #0
   11d80:	0a00005c 	beq	11ef8 <UNITTEST_rpi_protocol_receive_response+0x434>
   11d84:	e1d430ba 	ldrh	r3, [r4, #10]
   11d88:	e59f11d0 	ldr	r1, [pc, #464]	; 11f60 <UNITTEST_rpi_protocol_receive_response+0x49c>
   11d8c:	e59f019c 	ldr	r0, [pc, #412]	; 11f30 <UNITTEST_rpi_protocol_receive_response+0x46c>
   11d90:	e2833001 	add	r3, r3, #1
   11d94:	e1c430ba 	strh	r3, [r4, #10]
   11d98:	e59f31c4 	ldr	r3, [pc, #452]	; 11f64 <UNITTEST_rpi_protocol_receive_response+0x4a0>
   11d9c:	e2855001 	add	r5, r5, #1
   11da0:	e58d3004 	str	r3, [sp, #4]
   11da4:	e59f3180 	ldr	r3, [pc, #384]	; 11f2c <UNITTEST_rpi_protocol_receive_response+0x468>
   11da8:	e58d3000 	str	r3, [sp]
   11dac:	e3a03000 	mov	r3, #0
   11db0:	ebfffa12 	bl	10600 <printf@plt>
   11db4:	e0863005 	add	r3, r6, r5
   11db8:	e1a02006 	mov	r2, r6
   11dbc:	e1a01008 	mov	r1, r8
   11dc0:	e59f01a0 	ldr	r0, [pc, #416]	; 11f68 <UNITTEST_rpi_protocol_receive_response+0x4a4>
   11dc4:	ebfffa0d 	bl	10600 <printf@plt>
   11dc8:	e28ddf51 	add	sp, sp, #324	; 0x144
   11dcc:	e8bd8ff0 	pop	{r4, r5, r6, r7, r8, r9, sl, fp, pc}
   11dd0:	eb00070d 	bl	13a0c <mcu_task_controller_schedule>
   11dd4:	eb000c78 	bl	14fbc <test_driver_get_tx_bytes_num_available>
   11dd8:	e3500000 	cmp	r0, #0
   11ddc:	0affff6e 	beq	11b9c <UNITTEST_rpi_protocol_receive_response+0xd8>
   11de0:	eb000c75 	bl	14fbc <test_driver_get_tx_bytes_num_available>
   11de4:	e28d1040 	add	r1, sp, #64	; 0x40
   11de8:	e2855001 	add	r5, r5, #1
   11dec:	e1a07000 	mov	r7, r0
   11df0:	eb000c62 	bl	14f80 <test_driver_get_tx_bytes>
   11df4:	eaffff67 	b	11b98 <UNITTEST_rpi_protocol_receive_response+0xd4>
   11df8:	e1d430bc 	ldrh	r3, [r4, #12]
   11dfc:	e1a02005 	mov	r2, r5
   11e00:	e59f1120 	ldr	r1, [pc, #288]	; 11f28 <UNITTEST_rpi_protocol_receive_response+0x464>
   11e04:	e2833001 	add	r3, r3, #1
   11e08:	e59f015c 	ldr	r0, [pc, #348]	; 11f6c <UNITTEST_rpi_protocol_receive_response+0x4a8>
   11e0c:	e1c430bc 	strh	r3, [r4, #12]
   11e10:	e3a06001 	mov	r6, #1
   11e14:	ebfff9f9 	bl	10600 <printf@plt>
   11e18:	eaffff74 	b	11bf0 <UNITTEST_rpi_protocol_receive_response+0x12c>
   11e1c:	e1d430bc 	ldrh	r3, [r4, #12]
   11e20:	e59f110c 	ldr	r1, [pc, #268]	; 11f34 <UNITTEST_rpi_protocol_receive_response+0x470>
   11e24:	e59f0140 	ldr	r0, [pc, #320]	; 11f6c <UNITTEST_rpi_protocol_receive_response+0x4a8>
   11e28:	e2833001 	add	r3, r3, #1
   11e2c:	e2866001 	add	r6, r6, #1
   11e30:	e1c430bc 	strh	r3, [r4, #12]
   11e34:	ebfff9f1 	bl	10600 <printf@plt>
   11e38:	eaffff7b 	b	11c2c <UNITTEST_rpi_protocol_receive_response+0x168>
   11e3c:	e1d430bc 	ldrh	r3, [r4, #12]
   11e40:	e59f10f0 	ldr	r1, [pc, #240]	; 11f38 <UNITTEST_rpi_protocol_receive_response+0x474>
   11e44:	e59f0120 	ldr	r0, [pc, #288]	; 11f6c <UNITTEST_rpi_protocol_receive_response+0x4a8>
   11e48:	e2833001 	add	r3, r3, #1
   11e4c:	e2866001 	add	r6, r6, #1
   11e50:	e1c430bc 	strh	r3, [r4, #12]
   11e54:	ebfff9e9 	bl	10600 <printf@plt>
   11e58:	eaffff82 	b	11c68 <UNITTEST_rpi_protocol_receive_response+0x1a4>
   11e5c:	e1d430bc 	ldrh	r3, [r4, #12]
   11e60:	e1a02009 	mov	r2, r9
   11e64:	e59f10d0 	ldr	r1, [pc, #208]	; 11f3c <UNITTEST_rpi_protocol_receive_response+0x478>
   11e68:	e2833001 	add	r3, r3, #1
   11e6c:	e59f00f8 	ldr	r0, [pc, #248]	; 11f6c <UNITTEST_rpi_protocol_receive_response+0x4a8>
   11e70:	e2866001 	add	r6, r6, #1
   11e74:	e1c430bc 	strh	r3, [r4, #12]
   11e78:	ebfff9e0 	bl	10600 <printf@plt>
   11e7c:	eaffff88 	b	11ca4 <UNITTEST_rpi_protocol_receive_response+0x1e0>
   11e80:	e1d430bc 	ldrh	r3, [r4, #12]
   11e84:	e1a02007 	mov	r2, r7
   11e88:	e59f10b0 	ldr	r1, [pc, #176]	; 11f40 <UNITTEST_rpi_protocol_receive_response+0x47c>
   11e8c:	e2833001 	add	r3, r3, #1
   11e90:	e59f00d4 	ldr	r0, [pc, #212]	; 11f6c <UNITTEST_rpi_protocol_receive_response+0x4a8>
   11e94:	e2866001 	add	r6, r6, #1
   11e98:	e1c430bc 	strh	r3, [r4, #12]
   11e9c:	ebfff9d7 	bl	10600 <printf@plt>
   11ea0:	eaffff8e 	b	11ce0 <UNITTEST_rpi_protocol_receive_response+0x21c>
   11ea4:	e2433001 	sub	r3, r3, #1
   11ea8:	e21330ff 	ands	r3, r3, #255	; 0xff
   11eac:	1affff8f 	bne	11cf0 <UNITTEST_rpi_protocol_receive_response+0x22c>
   11eb0:	e59f1094 	ldr	r1, [pc, #148]	; 11f4c <UNITTEST_rpi_protocol_receive_response+0x488>
   11eb4:	e59f00b4 	ldr	r0, [pc, #180]	; 11f70 <UNITTEST_rpi_protocol_receive_response+0x4ac>
   11eb8:	ebfff9d0 	bl	10600 <printf@plt>
   11ebc:	e59fa094 	ldr	sl, [pc, #148]	; 11f58 <UNITTEST_rpi_protocol_receive_response+0x494>
   11ec0:	e3a09005 	mov	r9, #5
   11ec4:	e4d71001 	ldrb	r1, [r7], #1
   11ec8:	e1a0000a 	mov	r0, sl
   11ecc:	e2499001 	sub	r9, r9, #1
   11ed0:	ebfff9ca 	bl	10600 <printf@plt>
   11ed4:	e21990ff 	ands	r9, r9, #255	; 0xff
   11ed8:	1afffff9 	bne	11ec4 <UNITTEST_rpi_protocol_receive_response+0x400>
   11edc:	e59f0090 	ldr	r0, [pc, #144]	; 11f74 <UNITTEST_rpi_protocol_receive_response+0x4b0>
   11ee0:	ebfff9d2 	bl	10630 <puts@plt>
   11ee4:	e1d430bc 	ldrh	r3, [r4, #12]
   11ee8:	e2866001 	add	r6, r6, #1
   11eec:	e2833001 	add	r3, r3, #1
   11ef0:	e1c430bc 	strh	r3, [r4, #12]
   11ef4:	eaffff9f 	b	11d78 <UNITTEST_rpi_protocol_receive_response+0x2b4>
   11ef8:	e1d430bc 	ldrh	r3, [r4, #12]
   11efc:	e59f105c 	ldr	r1, [pc, #92]	; 11f60 <UNITTEST_rpi_protocol_receive_response+0x49c>
   11f00:	e59f0064 	ldr	r0, [pc, #100]	; 11f6c <UNITTEST_rpi_protocol_receive_response+0x4a8>
   11f04:	e2833001 	add	r3, r3, #1
   11f08:	e2866001 	add	r6, r6, #1
   11f0c:	e1c430bc 	strh	r3, [r4, #12]
   11f10:	ebfff9ba 	bl	10600 <printf@plt>
   11f14:	eaffffa6 	b	11db4 <UNITTEST_rpi_protocol_receive_response+0x2f0>
   11f18:	00015205 	.word	0x00015205
   11f1c:	000261c8 	.word	0x000261c8
   11f20:	00015037 	.word	0x00015037
   11f24:	05000104 	.word	0x05000104
   11f28:	0001505b 	.word	0x0001505b
   11f2c:	000150a9 	.word	0x000150a9
   11f30:	00015076 	.word	0x00015076
   11f34:	000150d9 	.word	0x000150d9
   11f38:	000150f4 	.word	0x000150f4
   11f3c:	00015114 	.word	0x00015114
   11f40:	0001512e 	.word	0x0001512e
   11f44:	00000101 	.word	0x00000101
   11f48:	00000102 	.word	0x00000102
   11f4c:	00015142 	.word	0x00015142
   11f50:	0001514e 	.word	0x0001514e
   11f54:	0001516e 	.word	0x0001516e
   11f58:	0001517e 	.word	0x0001517e
   11f5c:	00015186 	.word	0x00015186
   11f60:	000151aa 	.word	0x000151aa
   11f64:	00000103 	.word	0x00000103
   11f68:	000151d2 	.word	0x000151d2
   11f6c:	000150c8 	.word	0x000150c8
   11f70:	00015196 	.word	0x00015196
   11f74:	000151a6 	.word	0x000151a6

00011f78 <UT_RPI_PROTOCOL_LEAVE_SLEEP_SLOT_connect>:
   11f78:	e59f0008 	ldr	r0, [pc, #8]	; 11f88 <UT_RPI_PROTOCOL_LEAVE_SLEEP_SLOT_connect+0x10>
   11f7c:	e59f3008 	ldr	r3, [pc, #8]	; 11f8c <UT_RPI_PROTOCOL_LEAVE_SLEEP_SLOT_connect+0x14>
   11f80:	e5a03010 	str	r3, [r0, #16]!
   11f84:	ea0007d6 	b	13ee4 <RPI_PROTOCOL_LEAVE_SLEEP_SIGNAL_connect>
   11f88:	000261c8 	.word	0x000261c8
   11f8c:	00011a34 	.word	0x00011a34

00011f90 <UT_RPI_PROTOCOL_ENTER_SLEEP_SLOT_connect>:
   11f90:	e59f0008 	ldr	r0, [pc, #8]	; 11fa0 <UT_RPI_PROTOCOL_ENTER_SLEEP_SLOT_connect+0x10>
   11f94:	e59f3008 	ldr	r3, [pc, #8]	; 11fa4 <UT_RPI_PROTOCOL_ENTER_SLEEP_SLOT_connect+0x14>
   11f98:	e5a03018 	str	r3, [r0, #24]!
   11f9c:	ea0007df 	b	13f20 <RPI_PROTOCOL_ENTER_SLEEP_SIGNAL_connect>
   11fa0:	000261c8 	.word	0x000261c8
   11fa4:	00011a4c 	.word	0x00011a4c

00011fa8 <UT_RPI_PROTOCOL_COMMAND_RECEIVED_SLOT_connect>:
   11fa8:	e59f0008 	ldr	r0, [pc, #8]	; 11fb8 <UT_RPI_PROTOCOL_COMMAND_RECEIVED_SLOT_connect+0x10>
   11fac:	e59f3008 	ldr	r3, [pc, #8]	; 11fbc <UT_RPI_PROTOCOL_COMMAND_RECEIVED_SLOT_connect+0x14>
   11fb0:	e5a03020 	str	r3, [r0, #32]!
   11fb4:	ea000953 	b	14508 <RPI_PROTOCOL_COMMAND_RECEIVED_SIGNAL_connect>
   11fb8:	000261c8 	.word	0x000261c8
   11fbc:	00011a64 	.word	0x00011a64

00011fc0 <UT_RPI_PROTOCOL_INVALID_COMMAND_RECEIVED_SLOT_connect>:
   11fc0:	e59f0008 	ldr	r0, [pc, #8]	; 11fd0 <UT_RPI_PROTOCOL_INVALID_COMMAND_RECEIVED_SLOT_connect+0x10>
   11fc4:	e59f3008 	ldr	r3, [pc, #8]	; 11fd4 <UT_RPI_PROTOCOL_INVALID_COMMAND_RECEIVED_SLOT_connect+0x14>
   11fc8:	e5a03028 	str	r3, [r0, #40]!	; 0x28
   11fcc:	ea0007e2 	b	13f5c <RPI_PROTOCOL_INVALID_COMMAND_RECEIVED_SIGNAL_connect>
   11fd0:	000261c8 	.word	0x000261c8
   11fd4:	00011a80 	.word	0x00011a80

00011fd8 <I2C_SDA_drive_high>:
   11fd8:	e59f3008 	ldr	r3, [pc, #8]	; 11fe8 <I2C_SDA_drive_high+0x10>
   11fdc:	e3a02001 	mov	r2, #1
   11fe0:	e5832000 	str	r2, [r3]
   11fe4:	e12fff1e 	bx	lr
   11fe8:	000261f8 	.word	0x000261f8

00011fec <I2C_SDA_drive_low>:
   11fec:	e59f3008 	ldr	r3, [pc, #8]	; 11ffc <I2C_SDA_drive_low+0x10>
   11ff0:	e3a02000 	mov	r2, #0
   11ff4:	e5832000 	str	r2, [r3]
   11ff8:	e12fff1e 	bx	lr
   11ffc:	000261f8 	.word	0x000261f8

00012000 <I2C_SDA_no_drive>:
   12000:	e59f3008 	ldr	r3, [pc, #8]	; 12010 <I2C_SDA_no_drive+0x10>
   12004:	e3a02002 	mov	r2, #2
   12008:	e5832000 	str	r2, [r3]
   1200c:	e12fff1e 	bx	lr
   12010:	000261f8 	.word	0x000261f8

00012014 <I2C_SDA_toggle_level>:
   12014:	e12fff1e 	bx	lr

00012018 <I2C_SDA_pull_up>:
   12018:	e59f3008 	ldr	r3, [pc, #8]	; 12028 <I2C_SDA_pull_up+0x10>
   1201c:	e3a02001 	mov	r2, #1
   12020:	e5832000 	str	r2, [r3]
   12024:	e12fff1e 	bx	lr
   12028:	000261f8 	.word	0x000261f8

0001202c <I2C_SDA_pull_down>:
   1202c:	e59f3008 	ldr	r3, [pc, #8]	; 1203c <I2C_SDA_pull_down+0x10>
   12030:	e3a02000 	mov	r2, #0
   12034:	e5832000 	str	r2, [r3]
   12038:	e12fff1e 	bx	lr
   1203c:	000261f8 	.word	0x000261f8

00012040 <I2C_SDA_no_pull>:
   12040:	eaffffee 	b	12000 <I2C_SDA_no_drive>

00012044 <I2C_SDA_is_high_level>:
   12044:	e59f3010 	ldr	r3, [pc, #16]	; 1205c <I2C_SDA_is_high_level+0x18>
   12048:	e5930000 	ldr	r0, [r3]
   1204c:	e2400001 	sub	r0, r0, #1
   12050:	e16f0f10 	clz	r0, r0
   12054:	e1a002a0 	lsr	r0, r0, #5
   12058:	e12fff1e 	bx	lr
   1205c:	000261f8 	.word	0x000261f8

00012060 <I2C_SDA_is_low_level>:
   12060:	e59f300c 	ldr	r3, [pc, #12]	; 12074 <I2C_SDA_is_low_level+0x14>
   12064:	e5930000 	ldr	r0, [r3]
   12068:	e16f0f10 	clz	r0, r0
   1206c:	e1a002a0 	lsr	r0, r0, #5
   12070:	e12fff1e 	bx	lr
   12074:	000261f8 	.word	0x000261f8

00012078 <I2C_SDA_print_state>:
   12078:	e12fff1e 	bx	lr

0001207c <I2C_SCL_drive_high>:
   1207c:	e59f3008 	ldr	r3, [pc, #8]	; 1208c <I2C_SCL_drive_high+0x10>
   12080:	e3a02001 	mov	r2, #1
   12084:	e5832004 	str	r2, [r3, #4]
   12088:	e12fff1e 	bx	lr
   1208c:	000261f8 	.word	0x000261f8

00012090 <I2C_SCL_drive_low>:
   12090:	e59f3008 	ldr	r3, [pc, #8]	; 120a0 <I2C_SCL_drive_low+0x10>
   12094:	e3a02000 	mov	r2, #0
   12098:	e5832004 	str	r2, [r3, #4]
   1209c:	e12fff1e 	bx	lr
   120a0:	000261f8 	.word	0x000261f8

000120a4 <I2C_SCL_no_drive>:
   120a4:	e59f3008 	ldr	r3, [pc, #8]	; 120b4 <I2C_SCL_no_drive+0x10>
   120a8:	e3a02002 	mov	r2, #2
   120ac:	e5832004 	str	r2, [r3, #4]
   120b0:	e12fff1e 	bx	lr
   120b4:	000261f8 	.word	0x000261f8

000120b8 <I2C_SCL_toggle_level>:
   120b8:	e12fff1e 	bx	lr

000120bc <I2C_SCL_pull_up>:
   120bc:	e59f3008 	ldr	r3, [pc, #8]	; 120cc <I2C_SCL_pull_up+0x10>
   120c0:	e3a02001 	mov	r2, #1
   120c4:	e5832004 	str	r2, [r3, #4]
   120c8:	e12fff1e 	bx	lr
   120cc:	000261f8 	.word	0x000261f8

000120d0 <I2C_SCL_pull_down>:
   120d0:	e59f3008 	ldr	r3, [pc, #8]	; 120e0 <I2C_SCL_pull_down+0x10>
   120d4:	e3a02000 	mov	r2, #0
   120d8:	e5832004 	str	r2, [r3, #4]
   120dc:	e12fff1e 	bx	lr
   120e0:	000261f8 	.word	0x000261f8

000120e4 <I2C_SCL_no_pull>:
   120e4:	eaffffee 	b	120a4 <I2C_SCL_no_drive>

000120e8 <I2C_SCL_is_high_level>:
   120e8:	e59f3010 	ldr	r3, [pc, #16]	; 12100 <I2C_SCL_is_high_level+0x18>
   120ec:	e5930004 	ldr	r0, [r3, #4]
   120f0:	e2400001 	sub	r0, r0, #1
   120f4:	e16f0f10 	clz	r0, r0
   120f8:	e1a002a0 	lsr	r0, r0, #5
   120fc:	e12fff1e 	bx	lr
   12100:	000261f8 	.word	0x000261f8

00012104 <I2C_SCL_is_low_level>:
   12104:	e59f300c 	ldr	r3, [pc, #12]	; 12118 <I2C_SCL_is_low_level+0x14>
   12108:	e5930004 	ldr	r0, [r3, #4]
   1210c:	e16f0f10 	clz	r0, r0
   12110:	e1a002a0 	lsr	r0, r0, #5
   12114:	e12fff1e 	bx	lr
   12118:	000261f8 	.word	0x000261f8

0001211c <I2C_SCL_print_state>:
   1211c:	e12fff1e 	bx	lr

00012120 <GPIO04_drive_high>:
   12120:	e59f3008 	ldr	r3, [pc, #8]	; 12130 <GPIO04_drive_high+0x10>
   12124:	e3a02001 	mov	r2, #1
   12128:	e5832008 	str	r2, [r3, #8]
   1212c:	e12fff1e 	bx	lr
   12130:	000261f8 	.word	0x000261f8

00012134 <GPIO04_drive_low>:
   12134:	e59f3008 	ldr	r3, [pc, #8]	; 12144 <GPIO04_drive_low+0x10>
   12138:	e3a02000 	mov	r2, #0
   1213c:	e5832008 	str	r2, [r3, #8]
   12140:	e12fff1e 	bx	lr
   12144:	000261f8 	.word	0x000261f8

00012148 <GPIO04_no_drive>:
   12148:	e59f3008 	ldr	r3, [pc, #8]	; 12158 <GPIO04_no_drive+0x10>
   1214c:	e3a02002 	mov	r2, #2
   12150:	e5832008 	str	r2, [r3, #8]
   12154:	e12fff1e 	bx	lr
   12158:	000261f8 	.word	0x000261f8

0001215c <GPIO04_toggle_level>:
   1215c:	e12fff1e 	bx	lr

00012160 <GPIO04_pull_up>:
   12160:	e59f3008 	ldr	r3, [pc, #8]	; 12170 <GPIO04_pull_up+0x10>
   12164:	e3a02001 	mov	r2, #1
   12168:	e5832008 	str	r2, [r3, #8]
   1216c:	e12fff1e 	bx	lr
   12170:	000261f8 	.word	0x000261f8

00012174 <GPIO04_pull_down>:
   12174:	e59f3008 	ldr	r3, [pc, #8]	; 12184 <GPIO04_pull_down+0x10>
   12178:	e3a02000 	mov	r2, #0
   1217c:	e5832008 	str	r2, [r3, #8]
   12180:	e12fff1e 	bx	lr
   12184:	000261f8 	.word	0x000261f8

00012188 <GPIO04_no_pull>:
   12188:	eaffffee 	b	12148 <GPIO04_no_drive>

0001218c <GPIO04_is_high_level>:
   1218c:	e59f3010 	ldr	r3, [pc, #16]	; 121a4 <GPIO04_is_high_level+0x18>
   12190:	e5930008 	ldr	r0, [r3, #8]
   12194:	e2400001 	sub	r0, r0, #1
   12198:	e16f0f10 	clz	r0, r0
   1219c:	e1a002a0 	lsr	r0, r0, #5
   121a0:	e12fff1e 	bx	lr
   121a4:	000261f8 	.word	0x000261f8

000121a8 <GPIO04_is_low_level>:
   121a8:	e59f300c 	ldr	r3, [pc, #12]	; 121bc <GPIO04_is_low_level+0x14>
   121ac:	e5930008 	ldr	r0, [r3, #8]
   121b0:	e16f0f10 	clz	r0, r0
   121b4:	e1a002a0 	lsr	r0, r0, #5
   121b8:	e12fff1e 	bx	lr
   121bc:	000261f8 	.word	0x000261f8

000121c0 <GPIO04_print_state>:
   121c0:	e12fff1e 	bx	lr

000121c4 <UART_TXD_drive_high>:
   121c4:	e59f3008 	ldr	r3, [pc, #8]	; 121d4 <UART_TXD_drive_high+0x10>
   121c8:	e3a02001 	mov	r2, #1
   121cc:	e583200c 	str	r2, [r3, #12]
   121d0:	e12fff1e 	bx	lr
   121d4:	000261f8 	.word	0x000261f8

000121d8 <UART_TXD_drive_low>:
   121d8:	e59f3008 	ldr	r3, [pc, #8]	; 121e8 <UART_TXD_drive_low+0x10>
   121dc:	e3a02000 	mov	r2, #0
   121e0:	e583200c 	str	r2, [r3, #12]
   121e4:	e12fff1e 	bx	lr
   121e8:	000261f8 	.word	0x000261f8

000121ec <UART_TXD_no_drive>:
   121ec:	e59f3008 	ldr	r3, [pc, #8]	; 121fc <UART_TXD_no_drive+0x10>
   121f0:	e3a02002 	mov	r2, #2
   121f4:	e583200c 	str	r2, [r3, #12]
   121f8:	e12fff1e 	bx	lr
   121fc:	000261f8 	.word	0x000261f8

00012200 <UART_TXD_toggle_level>:
   12200:	e12fff1e 	bx	lr

00012204 <UART_TXD_pull_up>:
   12204:	e59f3008 	ldr	r3, [pc, #8]	; 12214 <UART_TXD_pull_up+0x10>
   12208:	e3a02001 	mov	r2, #1
   1220c:	e583200c 	str	r2, [r3, #12]
   12210:	e12fff1e 	bx	lr
   12214:	000261f8 	.word	0x000261f8

00012218 <UART_TXD_pull_down>:
   12218:	e59f3008 	ldr	r3, [pc, #8]	; 12228 <UART_TXD_pull_down+0x10>
   1221c:	e3a02000 	mov	r2, #0
   12220:	e583200c 	str	r2, [r3, #12]
   12224:	e12fff1e 	bx	lr
   12228:	000261f8 	.word	0x000261f8

0001222c <UART_TXD_no_pull>:
   1222c:	eaffffee 	b	121ec <UART_TXD_no_drive>

00012230 <UART_TXD_is_high_level>:
   12230:	e59f3010 	ldr	r3, [pc, #16]	; 12248 <UART_TXD_is_high_level+0x18>
   12234:	e593000c 	ldr	r0, [r3, #12]
   12238:	e2400001 	sub	r0, r0, #1
   1223c:	e16f0f10 	clz	r0, r0
   12240:	e1a002a0 	lsr	r0, r0, #5
   12244:	e12fff1e 	bx	lr
   12248:	000261f8 	.word	0x000261f8

0001224c <UART_TXD_is_low_level>:
   1224c:	e59f300c 	ldr	r3, [pc, #12]	; 12260 <UART_TXD_is_low_level+0x14>
   12250:	e593000c 	ldr	r0, [r3, #12]
   12254:	e16f0f10 	clz	r0, r0
   12258:	e1a002a0 	lsr	r0, r0, #5
   1225c:	e12fff1e 	bx	lr
   12260:	000261f8 	.word	0x000261f8

00012264 <UART_TXD_print_state>:
   12264:	e12fff1e 	bx	lr

00012268 <UART_RXD_drive_high>:
   12268:	e59f3008 	ldr	r3, [pc, #8]	; 12278 <UART_RXD_drive_high+0x10>
   1226c:	e3a02001 	mov	r2, #1
   12270:	e5832010 	str	r2, [r3, #16]
   12274:	e12fff1e 	bx	lr
   12278:	000261f8 	.word	0x000261f8

0001227c <UART_RXD_drive_low>:
   1227c:	e59f3008 	ldr	r3, [pc, #8]	; 1228c <UART_RXD_drive_low+0x10>
   12280:	e3a02000 	mov	r2, #0
   12284:	e5832010 	str	r2, [r3, #16]
   12288:	e12fff1e 	bx	lr
   1228c:	000261f8 	.word	0x000261f8

00012290 <UART_RXD_no_drive>:
   12290:	e59f3008 	ldr	r3, [pc, #8]	; 122a0 <UART_RXD_no_drive+0x10>
   12294:	e3a02002 	mov	r2, #2
   12298:	e5832010 	str	r2, [r3, #16]
   1229c:	e12fff1e 	bx	lr
   122a0:	000261f8 	.word	0x000261f8

000122a4 <UART_RXD_toggle_level>:
   122a4:	e12fff1e 	bx	lr

000122a8 <UART_RXD_pull_up>:
   122a8:	e59f3008 	ldr	r3, [pc, #8]	; 122b8 <UART_RXD_pull_up+0x10>
   122ac:	e3a02001 	mov	r2, #1
   122b0:	e5832010 	str	r2, [r3, #16]
   122b4:	e12fff1e 	bx	lr
   122b8:	000261f8 	.word	0x000261f8

000122bc <UART_RXD_pull_down>:
   122bc:	e59f3008 	ldr	r3, [pc, #8]	; 122cc <UART_RXD_pull_down+0x10>
   122c0:	e3a02000 	mov	r2, #0
   122c4:	e5832010 	str	r2, [r3, #16]
   122c8:	e12fff1e 	bx	lr
   122cc:	000261f8 	.word	0x000261f8

000122d0 <UART_RXD_no_pull>:
   122d0:	eaffffee 	b	12290 <UART_RXD_no_drive>

000122d4 <UART_RXD_is_high_level>:
   122d4:	e59f3010 	ldr	r3, [pc, #16]	; 122ec <UART_RXD_is_high_level+0x18>
   122d8:	e5930010 	ldr	r0, [r3, #16]
   122dc:	e2400001 	sub	r0, r0, #1
   122e0:	e16f0f10 	clz	r0, r0
   122e4:	e1a002a0 	lsr	r0, r0, #5
   122e8:	e12fff1e 	bx	lr
   122ec:	000261f8 	.word	0x000261f8

000122f0 <UART_RXD_is_low_level>:
   122f0:	e59f300c 	ldr	r3, [pc, #12]	; 12304 <UART_RXD_is_low_level+0x14>
   122f4:	e5930010 	ldr	r0, [r3, #16]
   122f8:	e16f0f10 	clz	r0, r0
   122fc:	e1a002a0 	lsr	r0, r0, #5
   12300:	e12fff1e 	bx	lr
   12304:	000261f8 	.word	0x000261f8

00012308 <UART_RXD_print_state>:
   12308:	e12fff1e 	bx	lr

0001230c <GPIO17_drive_high>:
   1230c:	e59f3008 	ldr	r3, [pc, #8]	; 1231c <GPIO17_drive_high+0x10>
   12310:	e3a02001 	mov	r2, #1
   12314:	e5832014 	str	r2, [r3, #20]
   12318:	e12fff1e 	bx	lr
   1231c:	000261f8 	.word	0x000261f8

00012320 <GPIO17_drive_low>:
   12320:	e59f3008 	ldr	r3, [pc, #8]	; 12330 <GPIO17_drive_low+0x10>
   12324:	e3a02000 	mov	r2, #0
   12328:	e5832014 	str	r2, [r3, #20]
   1232c:	e12fff1e 	bx	lr
   12330:	000261f8 	.word	0x000261f8

00012334 <GPIO17_no_drive>:
   12334:	e59f3008 	ldr	r3, [pc, #8]	; 12344 <GPIO17_no_drive+0x10>
   12338:	e3a02002 	mov	r2, #2
   1233c:	e5832014 	str	r2, [r3, #20]
   12340:	e12fff1e 	bx	lr
   12344:	000261f8 	.word	0x000261f8

00012348 <GPIO17_toggle_level>:
   12348:	e12fff1e 	bx	lr

0001234c <GPIO17_pull_up>:
   1234c:	e59f3008 	ldr	r3, [pc, #8]	; 1235c <GPIO17_pull_up+0x10>
   12350:	e3a02001 	mov	r2, #1
   12354:	e5832014 	str	r2, [r3, #20]
   12358:	e12fff1e 	bx	lr
   1235c:	000261f8 	.word	0x000261f8

00012360 <GPIO17_pull_down>:
   12360:	e59f3008 	ldr	r3, [pc, #8]	; 12370 <GPIO17_pull_down+0x10>
   12364:	e3a02000 	mov	r2, #0
   12368:	e5832014 	str	r2, [r3, #20]
   1236c:	e12fff1e 	bx	lr
   12370:	000261f8 	.word	0x000261f8

00012374 <GPIO17_no_pull>:
   12374:	eaffffee 	b	12334 <GPIO17_no_drive>

00012378 <GPIO17_is_high_level>:
   12378:	e59f3010 	ldr	r3, [pc, #16]	; 12390 <GPIO17_is_high_level+0x18>
   1237c:	e5930014 	ldr	r0, [r3, #20]
   12380:	e2400001 	sub	r0, r0, #1
   12384:	e16f0f10 	clz	r0, r0
   12388:	e1a002a0 	lsr	r0, r0, #5
   1238c:	e12fff1e 	bx	lr
   12390:	000261f8 	.word	0x000261f8

00012394 <GPIO17_is_low_level>:
   12394:	e59f300c 	ldr	r3, [pc, #12]	; 123a8 <GPIO17_is_low_level+0x14>
   12398:	e5930014 	ldr	r0, [r3, #20]
   1239c:	e16f0f10 	clz	r0, r0
   123a0:	e1a002a0 	lsr	r0, r0, #5
   123a4:	e12fff1e 	bx	lr
   123a8:	000261f8 	.word	0x000261f8

000123ac <GPIO17_print_state>:
   123ac:	e12fff1e 	bx	lr

000123b0 <GPIO18_drive_high>:
   123b0:	e59f3008 	ldr	r3, [pc, #8]	; 123c0 <GPIO18_drive_high+0x10>
   123b4:	e3a02001 	mov	r2, #1
   123b8:	e5832018 	str	r2, [r3, #24]
   123bc:	e12fff1e 	bx	lr
   123c0:	000261f8 	.word	0x000261f8

000123c4 <GPIO18_drive_low>:
   123c4:	e59f3008 	ldr	r3, [pc, #8]	; 123d4 <GPIO18_drive_low+0x10>
   123c8:	e3a02000 	mov	r2, #0
   123cc:	e5832018 	str	r2, [r3, #24]
   123d0:	e12fff1e 	bx	lr
   123d4:	000261f8 	.word	0x000261f8

000123d8 <GPIO18_no_drive>:
   123d8:	e59f3008 	ldr	r3, [pc, #8]	; 123e8 <GPIO18_no_drive+0x10>
   123dc:	e3a02002 	mov	r2, #2
   123e0:	e5832018 	str	r2, [r3, #24]
   123e4:	e12fff1e 	bx	lr
   123e8:	000261f8 	.word	0x000261f8

000123ec <GPIO18_toggle_level>:
   123ec:	e12fff1e 	bx	lr

000123f0 <GPIO18_pull_up>:
   123f0:	e59f3008 	ldr	r3, [pc, #8]	; 12400 <GPIO18_pull_up+0x10>
   123f4:	e3a02001 	mov	r2, #1
   123f8:	e5832018 	str	r2, [r3, #24]
   123fc:	e12fff1e 	bx	lr
   12400:	000261f8 	.word	0x000261f8

00012404 <GPIO18_pull_down>:
   12404:	e59f3008 	ldr	r3, [pc, #8]	; 12414 <GPIO18_pull_down+0x10>
   12408:	e3a02000 	mov	r2, #0
   1240c:	e5832018 	str	r2, [r3, #24]
   12410:	e12fff1e 	bx	lr
   12414:	000261f8 	.word	0x000261f8

00012418 <GPIO18_no_pull>:
   12418:	eaffffee 	b	123d8 <GPIO18_no_drive>

0001241c <GPIO18_is_high_level>:
   1241c:	e59f3010 	ldr	r3, [pc, #16]	; 12434 <GPIO18_is_high_level+0x18>
   12420:	e5930018 	ldr	r0, [r3, #24]
   12424:	e2400001 	sub	r0, r0, #1
   12428:	e16f0f10 	clz	r0, r0
   1242c:	e1a002a0 	lsr	r0, r0, #5
   12430:	e12fff1e 	bx	lr
   12434:	000261f8 	.word	0x000261f8

00012438 <GPIO18_is_low_level>:
   12438:	e59f300c 	ldr	r3, [pc, #12]	; 1244c <GPIO18_is_low_level+0x14>
   1243c:	e5930018 	ldr	r0, [r3, #24]
   12440:	e16f0f10 	clz	r0, r0
   12444:	e1a002a0 	lsr	r0, r0, #5
   12448:	e12fff1e 	bx	lr
   1244c:	000261f8 	.word	0x000261f8

00012450 <GPIO18_print_state>:
   12450:	e12fff1e 	bx	lr

00012454 <GPIO27_drive_high>:
   12454:	e59f3008 	ldr	r3, [pc, #8]	; 12464 <GPIO27_drive_high+0x10>
   12458:	e3a02001 	mov	r2, #1
   1245c:	e583201c 	str	r2, [r3, #28]
   12460:	e12fff1e 	bx	lr
   12464:	000261f8 	.word	0x000261f8

00012468 <GPIO27_drive_low>:
   12468:	e59f3008 	ldr	r3, [pc, #8]	; 12478 <GPIO27_drive_low+0x10>
   1246c:	e3a02000 	mov	r2, #0
   12470:	e583201c 	str	r2, [r3, #28]
   12474:	e12fff1e 	bx	lr
   12478:	000261f8 	.word	0x000261f8

0001247c <GPIO27_no_drive>:
   1247c:	e59f3008 	ldr	r3, [pc, #8]	; 1248c <GPIO27_no_drive+0x10>
   12480:	e3a02002 	mov	r2, #2
   12484:	e583201c 	str	r2, [r3, #28]
   12488:	e12fff1e 	bx	lr
   1248c:	000261f8 	.word	0x000261f8

00012490 <GPIO27_toggle_level>:
   12490:	e12fff1e 	bx	lr

00012494 <GPIO27_pull_up>:
   12494:	e59f3008 	ldr	r3, [pc, #8]	; 124a4 <GPIO27_pull_up+0x10>
   12498:	e3a02001 	mov	r2, #1
   1249c:	e583201c 	str	r2, [r3, #28]
   124a0:	e12fff1e 	bx	lr
   124a4:	000261f8 	.word	0x000261f8

000124a8 <GPIO27_pull_down>:
   124a8:	e59f3008 	ldr	r3, [pc, #8]	; 124b8 <GPIO27_pull_down+0x10>
   124ac:	e3a02000 	mov	r2, #0
   124b0:	e583201c 	str	r2, [r3, #28]
   124b4:	e12fff1e 	bx	lr
   124b8:	000261f8 	.word	0x000261f8

000124bc <GPIO27_no_pull>:
   124bc:	eaffffee 	b	1247c <GPIO27_no_drive>

000124c0 <GPIO27_is_high_level>:
   124c0:	e59f3010 	ldr	r3, [pc, #16]	; 124d8 <GPIO27_is_high_level+0x18>
   124c4:	e593001c 	ldr	r0, [r3, #28]
   124c8:	e2400001 	sub	r0, r0, #1
   124cc:	e16f0f10 	clz	r0, r0
   124d0:	e1a002a0 	lsr	r0, r0, #5
   124d4:	e12fff1e 	bx	lr
   124d8:	000261f8 	.word	0x000261f8

000124dc <GPIO27_is_low_level>:
   124dc:	e59f300c 	ldr	r3, [pc, #12]	; 124f0 <GPIO27_is_low_level+0x14>
   124e0:	e593001c 	ldr	r0, [r3, #28]
   124e4:	e16f0f10 	clz	r0, r0
   124e8:	e1a002a0 	lsr	r0, r0, #5
   124ec:	e12fff1e 	bx	lr
   124f0:	000261f8 	.word	0x000261f8

000124f4 <GPIO27_print_state>:
   124f4:	e12fff1e 	bx	lr

000124f8 <GPIO22_drive_high>:
   124f8:	e59f3008 	ldr	r3, [pc, #8]	; 12508 <GPIO22_drive_high+0x10>
   124fc:	e3a02001 	mov	r2, #1
   12500:	e5832020 	str	r2, [r3, #32]
   12504:	e12fff1e 	bx	lr
   12508:	000261f8 	.word	0x000261f8

0001250c <GPIO22_drive_low>:
   1250c:	e59f3008 	ldr	r3, [pc, #8]	; 1251c <GPIO22_drive_low+0x10>
   12510:	e3a02000 	mov	r2, #0
   12514:	e5832020 	str	r2, [r3, #32]
   12518:	e12fff1e 	bx	lr
   1251c:	000261f8 	.word	0x000261f8

00012520 <GPIO22_no_drive>:
   12520:	e59f3008 	ldr	r3, [pc, #8]	; 12530 <GPIO22_no_drive+0x10>
   12524:	e3a02002 	mov	r2, #2
   12528:	e5832020 	str	r2, [r3, #32]
   1252c:	e12fff1e 	bx	lr
   12530:	000261f8 	.word	0x000261f8

00012534 <GPIO22_toggle_level>:
   12534:	e12fff1e 	bx	lr

00012538 <GPIO22_pull_up>:
   12538:	e59f3008 	ldr	r3, [pc, #8]	; 12548 <GPIO22_pull_up+0x10>
   1253c:	e3a02001 	mov	r2, #1
   12540:	e5832020 	str	r2, [r3, #32]
   12544:	e12fff1e 	bx	lr
   12548:	000261f8 	.word	0x000261f8

0001254c <GPIO22_pull_down>:
   1254c:	e59f3008 	ldr	r3, [pc, #8]	; 1255c <GPIO22_pull_down+0x10>
   12550:	e3a02000 	mov	r2, #0
   12554:	e5832020 	str	r2, [r3, #32]
   12558:	e12fff1e 	bx	lr
   1255c:	000261f8 	.word	0x000261f8

00012560 <GPIO22_no_pull>:
   12560:	eaffffee 	b	12520 <GPIO22_no_drive>

00012564 <GPIO22_is_high_level>:
   12564:	e59f3010 	ldr	r3, [pc, #16]	; 1257c <GPIO22_is_high_level+0x18>
   12568:	e5930020 	ldr	r0, [r3, #32]
   1256c:	e2400001 	sub	r0, r0, #1
   12570:	e16f0f10 	clz	r0, r0
   12574:	e1a002a0 	lsr	r0, r0, #5
   12578:	e12fff1e 	bx	lr
   1257c:	000261f8 	.word	0x000261f8

00012580 <GPIO22_is_low_level>:
   12580:	e59f300c 	ldr	r3, [pc, #12]	; 12594 <GPIO22_is_low_level+0x14>
   12584:	e5930020 	ldr	r0, [r3, #32]
   12588:	e16f0f10 	clz	r0, r0
   1258c:	e1a002a0 	lsr	r0, r0, #5
   12590:	e12fff1e 	bx	lr
   12594:	000261f8 	.word	0x000261f8

00012598 <GPIO22_print_state>:
   12598:	e12fff1e 	bx	lr

0001259c <GPIO23_drive_high>:
   1259c:	e59f3008 	ldr	r3, [pc, #8]	; 125ac <GPIO23_drive_high+0x10>
   125a0:	e3a02001 	mov	r2, #1
   125a4:	e5832024 	str	r2, [r3, #36]	; 0x24
   125a8:	e12fff1e 	bx	lr
   125ac:	000261f8 	.word	0x000261f8

000125b0 <GPIO23_drive_low>:
   125b0:	e59f3008 	ldr	r3, [pc, #8]	; 125c0 <GPIO23_drive_low+0x10>
   125b4:	e3a02000 	mov	r2, #0
   125b8:	e5832024 	str	r2, [r3, #36]	; 0x24
   125bc:	e12fff1e 	bx	lr
   125c0:	000261f8 	.word	0x000261f8

000125c4 <GPIO23_no_drive>:
   125c4:	e59f3008 	ldr	r3, [pc, #8]	; 125d4 <GPIO23_no_drive+0x10>
   125c8:	e3a02002 	mov	r2, #2
   125cc:	e5832024 	str	r2, [r3, #36]	; 0x24
   125d0:	e12fff1e 	bx	lr
   125d4:	000261f8 	.word	0x000261f8

000125d8 <GPIO23_toggle_level>:
   125d8:	e12fff1e 	bx	lr

000125dc <GPIO23_pull_up>:
   125dc:	e59f3008 	ldr	r3, [pc, #8]	; 125ec <GPIO23_pull_up+0x10>
   125e0:	e3a02001 	mov	r2, #1
   125e4:	e5832024 	str	r2, [r3, #36]	; 0x24
   125e8:	e12fff1e 	bx	lr
   125ec:	000261f8 	.word	0x000261f8

000125f0 <GPIO23_pull_down>:
   125f0:	e59f3008 	ldr	r3, [pc, #8]	; 12600 <GPIO23_pull_down+0x10>
   125f4:	e3a02000 	mov	r2, #0
   125f8:	e5832024 	str	r2, [r3, #36]	; 0x24
   125fc:	e12fff1e 	bx	lr
   12600:	000261f8 	.word	0x000261f8

00012604 <GPIO23_no_pull>:
   12604:	eaffffee 	b	125c4 <GPIO23_no_drive>

00012608 <GPIO23_is_high_level>:
   12608:	e59f3010 	ldr	r3, [pc, #16]	; 12620 <GPIO23_is_high_level+0x18>
   1260c:	e5930024 	ldr	r0, [r3, #36]	; 0x24
   12610:	e2400001 	sub	r0, r0, #1
   12614:	e16f0f10 	clz	r0, r0
   12618:	e1a002a0 	lsr	r0, r0, #5
   1261c:	e12fff1e 	bx	lr
   12620:	000261f8 	.word	0x000261f8

00012624 <GPIO23_is_low_level>:
   12624:	e59f300c 	ldr	r3, [pc, #12]	; 12638 <GPIO23_is_low_level+0x14>
   12628:	e5930024 	ldr	r0, [r3, #36]	; 0x24
   1262c:	e16f0f10 	clz	r0, r0
   12630:	e1a002a0 	lsr	r0, r0, #5
   12634:	e12fff1e 	bx	lr
   12638:	000261f8 	.word	0x000261f8

0001263c <GPIO23_print_state>:
   1263c:	e12fff1e 	bx	lr

00012640 <GPIO24_drive_high>:
   12640:	e59f3008 	ldr	r3, [pc, #8]	; 12650 <GPIO24_drive_high+0x10>
   12644:	e3a02001 	mov	r2, #1
   12648:	e5832028 	str	r2, [r3, #40]	; 0x28
   1264c:	e12fff1e 	bx	lr
   12650:	000261f8 	.word	0x000261f8

00012654 <GPIO24_drive_low>:
   12654:	e59f3008 	ldr	r3, [pc, #8]	; 12664 <GPIO24_drive_low+0x10>
   12658:	e3a02000 	mov	r2, #0
   1265c:	e5832028 	str	r2, [r3, #40]	; 0x28
   12660:	e12fff1e 	bx	lr
   12664:	000261f8 	.word	0x000261f8

00012668 <GPIO24_no_drive>:
   12668:	e59f3008 	ldr	r3, [pc, #8]	; 12678 <GPIO24_no_drive+0x10>
   1266c:	e3a02002 	mov	r2, #2
   12670:	e5832028 	str	r2, [r3, #40]	; 0x28
   12674:	e12fff1e 	bx	lr
   12678:	000261f8 	.word	0x000261f8

0001267c <GPIO24_toggle_level>:
   1267c:	e12fff1e 	bx	lr

00012680 <GPIO24_pull_up>:
   12680:	e59f3008 	ldr	r3, [pc, #8]	; 12690 <GPIO24_pull_up+0x10>
   12684:	e3a02001 	mov	r2, #1
   12688:	e5832028 	str	r2, [r3, #40]	; 0x28
   1268c:	e12fff1e 	bx	lr
   12690:	000261f8 	.word	0x000261f8

00012694 <GPIO24_pull_down>:
   12694:	e59f3008 	ldr	r3, [pc, #8]	; 126a4 <GPIO24_pull_down+0x10>
   12698:	e3a02000 	mov	r2, #0
   1269c:	e5832028 	str	r2, [r3, #40]	; 0x28
   126a0:	e12fff1e 	bx	lr
   126a4:	000261f8 	.word	0x000261f8

000126a8 <GPIO24_no_pull>:
   126a8:	eaffffee 	b	12668 <GPIO24_no_drive>

000126ac <GPIO24_is_high_level>:
   126ac:	e59f3010 	ldr	r3, [pc, #16]	; 126c4 <GPIO24_is_high_level+0x18>
   126b0:	e5930028 	ldr	r0, [r3, #40]	; 0x28
   126b4:	e2400001 	sub	r0, r0, #1
   126b8:	e16f0f10 	clz	r0, r0
   126bc:	e1a002a0 	lsr	r0, r0, #5
   126c0:	e12fff1e 	bx	lr
   126c4:	000261f8 	.word	0x000261f8

000126c8 <GPIO24_is_low_level>:
   126c8:	e59f300c 	ldr	r3, [pc, #12]	; 126dc <GPIO24_is_low_level+0x14>
   126cc:	e5930028 	ldr	r0, [r3, #40]	; 0x28
   126d0:	e16f0f10 	clz	r0, r0
   126d4:	e1a002a0 	lsr	r0, r0, #5
   126d8:	e12fff1e 	bx	lr
   126dc:	000261f8 	.word	0x000261f8

000126e0 <GPIO24_print_state>:
   126e0:	e12fff1e 	bx	lr

000126e4 <SPI_MOSI_drive_high>:
   126e4:	e59f3008 	ldr	r3, [pc, #8]	; 126f4 <SPI_MOSI_drive_high+0x10>
   126e8:	e3a02001 	mov	r2, #1
   126ec:	e583202c 	str	r2, [r3, #44]	; 0x2c
   126f0:	e12fff1e 	bx	lr
   126f4:	000261f8 	.word	0x000261f8

000126f8 <SPI_MOSI_drive_low>:
   126f8:	e59f3008 	ldr	r3, [pc, #8]	; 12708 <SPI_MOSI_drive_low+0x10>
   126fc:	e3a02000 	mov	r2, #0
   12700:	e583202c 	str	r2, [r3, #44]	; 0x2c
   12704:	e12fff1e 	bx	lr
   12708:	000261f8 	.word	0x000261f8

0001270c <SPI_MOSI_no_drive>:
   1270c:	e59f3008 	ldr	r3, [pc, #8]	; 1271c <SPI_MOSI_no_drive+0x10>
   12710:	e3a02002 	mov	r2, #2
   12714:	e583202c 	str	r2, [r3, #44]	; 0x2c
   12718:	e12fff1e 	bx	lr
   1271c:	000261f8 	.word	0x000261f8

00012720 <SPI_MOSI_toggle_level>:
   12720:	e12fff1e 	bx	lr

00012724 <SPI_MOSI_pull_up>:
   12724:	e59f3008 	ldr	r3, [pc, #8]	; 12734 <SPI_MOSI_pull_up+0x10>
   12728:	e3a02001 	mov	r2, #1
   1272c:	e583202c 	str	r2, [r3, #44]	; 0x2c
   12730:	e12fff1e 	bx	lr
   12734:	000261f8 	.word	0x000261f8

00012738 <SPI_MOSI_pull_down>:
   12738:	e59f3008 	ldr	r3, [pc, #8]	; 12748 <SPI_MOSI_pull_down+0x10>
   1273c:	e3a02000 	mov	r2, #0
   12740:	e583202c 	str	r2, [r3, #44]	; 0x2c
   12744:	e12fff1e 	bx	lr
   12748:	000261f8 	.word	0x000261f8

0001274c <SPI_MOSI_no_pull>:
   1274c:	eaffffee 	b	1270c <SPI_MOSI_no_drive>

00012750 <SPI_MOSI_is_high_level>:
   12750:	e59f3010 	ldr	r3, [pc, #16]	; 12768 <SPI_MOSI_is_high_level+0x18>
   12754:	e593002c 	ldr	r0, [r3, #44]	; 0x2c
   12758:	e2400001 	sub	r0, r0, #1
   1275c:	e16f0f10 	clz	r0, r0
   12760:	e1a002a0 	lsr	r0, r0, #5
   12764:	e12fff1e 	bx	lr
   12768:	000261f8 	.word	0x000261f8

0001276c <SPI_MOSI_is_low_level>:
   1276c:	e59f300c 	ldr	r3, [pc, #12]	; 12780 <SPI_MOSI_is_low_level+0x14>
   12770:	e593002c 	ldr	r0, [r3, #44]	; 0x2c
   12774:	e16f0f10 	clz	r0, r0
   12778:	e1a002a0 	lsr	r0, r0, #5
   1277c:	e12fff1e 	bx	lr
   12780:	000261f8 	.word	0x000261f8

00012784 <SPI_MOSI_print_state>:
   12784:	e12fff1e 	bx	lr

00012788 <SPI_MISO_drive_high>:
   12788:	e59f3008 	ldr	r3, [pc, #8]	; 12798 <SPI_MISO_drive_high+0x10>
   1278c:	e3a02001 	mov	r2, #1
   12790:	e5832030 	str	r2, [r3, #48]	; 0x30
   12794:	e12fff1e 	bx	lr
   12798:	000261f8 	.word	0x000261f8

0001279c <SPI_MISO_drive_low>:
   1279c:	e59f3008 	ldr	r3, [pc, #8]	; 127ac <SPI_MISO_drive_low+0x10>
   127a0:	e3a02000 	mov	r2, #0
   127a4:	e5832030 	str	r2, [r3, #48]	; 0x30
   127a8:	e12fff1e 	bx	lr
   127ac:	000261f8 	.word	0x000261f8

000127b0 <SPI_MISO_no_drive>:
   127b0:	e59f3008 	ldr	r3, [pc, #8]	; 127c0 <SPI_MISO_no_drive+0x10>
   127b4:	e3a02002 	mov	r2, #2
   127b8:	e5832030 	str	r2, [r3, #48]	; 0x30
   127bc:	e12fff1e 	bx	lr
   127c0:	000261f8 	.word	0x000261f8

000127c4 <SPI_MISO_toggle_level>:
   127c4:	e12fff1e 	bx	lr

000127c8 <SPI_MISO_pull_up>:
   127c8:	e59f3008 	ldr	r3, [pc, #8]	; 127d8 <SPI_MISO_pull_up+0x10>
   127cc:	e3a02001 	mov	r2, #1
   127d0:	e5832030 	str	r2, [r3, #48]	; 0x30
   127d4:	e12fff1e 	bx	lr
   127d8:	000261f8 	.word	0x000261f8

000127dc <SPI_MISO_pull_down>:
   127dc:	e59f3008 	ldr	r3, [pc, #8]	; 127ec <SPI_MISO_pull_down+0x10>
   127e0:	e3a02000 	mov	r2, #0
   127e4:	e5832030 	str	r2, [r3, #48]	; 0x30
   127e8:	e12fff1e 	bx	lr
   127ec:	000261f8 	.word	0x000261f8

000127f0 <SPI_MISO_no_pull>:
   127f0:	eaffffee 	b	127b0 <SPI_MISO_no_drive>

000127f4 <SPI_MISO_is_high_level>:
   127f4:	e59f3010 	ldr	r3, [pc, #16]	; 1280c <SPI_MISO_is_high_level+0x18>
   127f8:	e5930030 	ldr	r0, [r3, #48]	; 0x30
   127fc:	e2400001 	sub	r0, r0, #1
   12800:	e16f0f10 	clz	r0, r0
   12804:	e1a002a0 	lsr	r0, r0, #5
   12808:	e12fff1e 	bx	lr
   1280c:	000261f8 	.word	0x000261f8

00012810 <SPI_MISO_is_low_level>:
   12810:	e59f300c 	ldr	r3, [pc, #12]	; 12824 <SPI_MISO_is_low_level+0x14>
   12814:	e5930030 	ldr	r0, [r3, #48]	; 0x30
   12818:	e16f0f10 	clz	r0, r0
   1281c:	e1a002a0 	lsr	r0, r0, #5
   12820:	e12fff1e 	bx	lr
   12824:	000261f8 	.word	0x000261f8

00012828 <SPI_MISO_print_state>:
   12828:	e12fff1e 	bx	lr

0001282c <GPIO25_drive_high>:
   1282c:	e59f3008 	ldr	r3, [pc, #8]	; 1283c <GPIO25_drive_high+0x10>
   12830:	e3a02001 	mov	r2, #1
   12834:	e5832034 	str	r2, [r3, #52]	; 0x34
   12838:	e12fff1e 	bx	lr
   1283c:	000261f8 	.word	0x000261f8

00012840 <GPIO25_drive_low>:
   12840:	e59f3008 	ldr	r3, [pc, #8]	; 12850 <GPIO25_drive_low+0x10>
   12844:	e3a02000 	mov	r2, #0
   12848:	e5832034 	str	r2, [r3, #52]	; 0x34
   1284c:	e12fff1e 	bx	lr
   12850:	000261f8 	.word	0x000261f8

00012854 <GPIO25_no_drive>:
   12854:	e59f3008 	ldr	r3, [pc, #8]	; 12864 <GPIO25_no_drive+0x10>
   12858:	e3a02002 	mov	r2, #2
   1285c:	e5832034 	str	r2, [r3, #52]	; 0x34
   12860:	e12fff1e 	bx	lr
   12864:	000261f8 	.word	0x000261f8

00012868 <GPIO25_toggle_level>:
   12868:	e12fff1e 	bx	lr

0001286c <GPIO25_pull_up>:
   1286c:	e59f3008 	ldr	r3, [pc, #8]	; 1287c <GPIO25_pull_up+0x10>
   12870:	e3a02001 	mov	r2, #1
   12874:	e5832034 	str	r2, [r3, #52]	; 0x34
   12878:	e12fff1e 	bx	lr
   1287c:	000261f8 	.word	0x000261f8

00012880 <GPIO25_pull_down>:
   12880:	e59f3008 	ldr	r3, [pc, #8]	; 12890 <GPIO25_pull_down+0x10>
   12884:	e3a02000 	mov	r2, #0
   12888:	e5832034 	str	r2, [r3, #52]	; 0x34
   1288c:	e12fff1e 	bx	lr
   12890:	000261f8 	.word	0x000261f8

00012894 <GPIO25_no_pull>:
   12894:	eaffffee 	b	12854 <GPIO25_no_drive>

00012898 <GPIO25_is_high_level>:
   12898:	e59f3010 	ldr	r3, [pc, #16]	; 128b0 <GPIO25_is_high_level+0x18>
   1289c:	e5930034 	ldr	r0, [r3, #52]	; 0x34
   128a0:	e2400001 	sub	r0, r0, #1
   128a4:	e16f0f10 	clz	r0, r0
   128a8:	e1a002a0 	lsr	r0, r0, #5
   128ac:	e12fff1e 	bx	lr
   128b0:	000261f8 	.word	0x000261f8

000128b4 <GPIO25_is_low_level>:
   128b4:	e59f300c 	ldr	r3, [pc, #12]	; 128c8 <GPIO25_is_low_level+0x14>
   128b8:	e5930034 	ldr	r0, [r3, #52]	; 0x34
   128bc:	e16f0f10 	clz	r0, r0
   128c0:	e1a002a0 	lsr	r0, r0, #5
   128c4:	e12fff1e 	bx	lr
   128c8:	000261f8 	.word	0x000261f8

000128cc <GPIO25_print_state>:
   128cc:	e12fff1e 	bx	lr

000128d0 <SPI_SCLK_drive_high>:
   128d0:	e59f3008 	ldr	r3, [pc, #8]	; 128e0 <SPI_SCLK_drive_high+0x10>
   128d4:	e3a02001 	mov	r2, #1
   128d8:	e5832038 	str	r2, [r3, #56]	; 0x38
   128dc:	e12fff1e 	bx	lr
   128e0:	000261f8 	.word	0x000261f8

000128e4 <SPI_SCLK_drive_low>:
   128e4:	e59f3008 	ldr	r3, [pc, #8]	; 128f4 <SPI_SCLK_drive_low+0x10>
   128e8:	e3a02000 	mov	r2, #0
   128ec:	e5832038 	str	r2, [r3, #56]	; 0x38
   128f0:	e12fff1e 	bx	lr
   128f4:	000261f8 	.word	0x000261f8

000128f8 <SPI_SCLK_no_drive>:
   128f8:	e59f3008 	ldr	r3, [pc, #8]	; 12908 <SPI_SCLK_no_drive+0x10>
   128fc:	e3a02002 	mov	r2, #2
   12900:	e5832038 	str	r2, [r3, #56]	; 0x38
   12904:	e12fff1e 	bx	lr
   12908:	000261f8 	.word	0x000261f8

0001290c <SPI_SCLK_toggle_level>:
   1290c:	e12fff1e 	bx	lr

00012910 <SPI_SCLK_pull_up>:
   12910:	e59f3008 	ldr	r3, [pc, #8]	; 12920 <SPI_SCLK_pull_up+0x10>
   12914:	e3a02001 	mov	r2, #1
   12918:	e5832038 	str	r2, [r3, #56]	; 0x38
   1291c:	e12fff1e 	bx	lr
   12920:	000261f8 	.word	0x000261f8

00012924 <SPI_SCLK_pull_down>:
   12924:	e59f3008 	ldr	r3, [pc, #8]	; 12934 <SPI_SCLK_pull_down+0x10>
   12928:	e3a02000 	mov	r2, #0
   1292c:	e5832038 	str	r2, [r3, #56]	; 0x38
   12930:	e12fff1e 	bx	lr
   12934:	000261f8 	.word	0x000261f8

00012938 <SPI_SCLK_no_pull>:
   12938:	eaffffee 	b	128f8 <SPI_SCLK_no_drive>

0001293c <SPI_SCLK_is_high_level>:
   1293c:	e59f3010 	ldr	r3, [pc, #16]	; 12954 <SPI_SCLK_is_high_level+0x18>
   12940:	e5930038 	ldr	r0, [r3, #56]	; 0x38
   12944:	e2400001 	sub	r0, r0, #1
   12948:	e16f0f10 	clz	r0, r0
   1294c:	e1a002a0 	lsr	r0, r0, #5
   12950:	e12fff1e 	bx	lr
   12954:	000261f8 	.word	0x000261f8

00012958 <SPI_SCLK_is_low_level>:
   12958:	e59f300c 	ldr	r3, [pc, #12]	; 1296c <SPI_SCLK_is_low_level+0x14>
   1295c:	e5930038 	ldr	r0, [r3, #56]	; 0x38
   12960:	e16f0f10 	clz	r0, r0
   12964:	e1a002a0 	lsr	r0, r0, #5
   12968:	e12fff1e 	bx	lr
   1296c:	000261f8 	.word	0x000261f8

00012970 <SPI_SCLK_print_state>:
   12970:	e12fff1e 	bx	lr

00012974 <SPI_CE0_drive_high>:
   12974:	e59f3008 	ldr	r3, [pc, #8]	; 12984 <SPI_CE0_drive_high+0x10>
   12978:	e3a02001 	mov	r2, #1
   1297c:	e583203c 	str	r2, [r3, #60]	; 0x3c
   12980:	e12fff1e 	bx	lr
   12984:	000261f8 	.word	0x000261f8

00012988 <SPI_CE0_drive_low>:
   12988:	e59f3008 	ldr	r3, [pc, #8]	; 12998 <SPI_CE0_drive_low+0x10>
   1298c:	e3a02000 	mov	r2, #0
   12990:	e583203c 	str	r2, [r3, #60]	; 0x3c
   12994:	e12fff1e 	bx	lr
   12998:	000261f8 	.word	0x000261f8

0001299c <SPI_CE0_no_drive>:
   1299c:	e59f3008 	ldr	r3, [pc, #8]	; 129ac <SPI_CE0_no_drive+0x10>
   129a0:	e3a02002 	mov	r2, #2
   129a4:	e583203c 	str	r2, [r3, #60]	; 0x3c
   129a8:	e12fff1e 	bx	lr
   129ac:	000261f8 	.word	0x000261f8

000129b0 <SPI_CE0_toggle_level>:
   129b0:	e12fff1e 	bx	lr

000129b4 <SPI_CE0_pull_up>:
   129b4:	e59f3008 	ldr	r3, [pc, #8]	; 129c4 <SPI_CE0_pull_up+0x10>
   129b8:	e3a02001 	mov	r2, #1
   129bc:	e583203c 	str	r2, [r3, #60]	; 0x3c
   129c0:	e12fff1e 	bx	lr
   129c4:	000261f8 	.word	0x000261f8

000129c8 <SPI_CE0_pull_down>:
   129c8:	e59f3008 	ldr	r3, [pc, #8]	; 129d8 <SPI_CE0_pull_down+0x10>
   129cc:	e3a02000 	mov	r2, #0
   129d0:	e583203c 	str	r2, [r3, #60]	; 0x3c
   129d4:	e12fff1e 	bx	lr
   129d8:	000261f8 	.word	0x000261f8

000129dc <SPI_CE0_no_pull>:
   129dc:	eaffffee 	b	1299c <SPI_CE0_no_drive>

000129e0 <SPI_CE0_is_high_level>:
   129e0:	e59f3010 	ldr	r3, [pc, #16]	; 129f8 <SPI_CE0_is_high_level+0x18>
   129e4:	e593003c 	ldr	r0, [r3, #60]	; 0x3c
   129e8:	e2400001 	sub	r0, r0, #1
   129ec:	e16f0f10 	clz	r0, r0
   129f0:	e1a002a0 	lsr	r0, r0, #5
   129f4:	e12fff1e 	bx	lr
   129f8:	000261f8 	.word	0x000261f8

000129fc <SPI_CE0_is_low_level>:
   129fc:	e59f300c 	ldr	r3, [pc, #12]	; 12a10 <SPI_CE0_is_low_level+0x14>
   12a00:	e593003c 	ldr	r0, [r3, #60]	; 0x3c
   12a04:	e16f0f10 	clz	r0, r0
   12a08:	e1a002a0 	lsr	r0, r0, #5
   12a0c:	e12fff1e 	bx	lr
   12a10:	000261f8 	.word	0x000261f8

00012a14 <SPI_CE0_print_state>:
   12a14:	e12fff1e 	bx	lr

00012a18 <SPI_CE1_drive_high>:
   12a18:	e59f3008 	ldr	r3, [pc, #8]	; 12a28 <SPI_CE1_drive_high+0x10>
   12a1c:	e3a02001 	mov	r2, #1
   12a20:	e5832040 	str	r2, [r3, #64]	; 0x40
   12a24:	e12fff1e 	bx	lr
   12a28:	000261f8 	.word	0x000261f8

00012a2c <SPI_CE1_drive_low>:
   12a2c:	e59f3008 	ldr	r3, [pc, #8]	; 12a3c <SPI_CE1_drive_low+0x10>
   12a30:	e3a02000 	mov	r2, #0
   12a34:	e5832040 	str	r2, [r3, #64]	; 0x40
   12a38:	e12fff1e 	bx	lr
   12a3c:	000261f8 	.word	0x000261f8

00012a40 <SPI_CE1_no_drive>:
   12a40:	e59f3008 	ldr	r3, [pc, #8]	; 12a50 <SPI_CE1_no_drive+0x10>
   12a44:	e3a02002 	mov	r2, #2
   12a48:	e5832040 	str	r2, [r3, #64]	; 0x40
   12a4c:	e12fff1e 	bx	lr
   12a50:	000261f8 	.word	0x000261f8

00012a54 <SPI_CE1_toggle_level>:
   12a54:	e12fff1e 	bx	lr

00012a58 <SPI_CE1_pull_up>:
   12a58:	e59f3008 	ldr	r3, [pc, #8]	; 12a68 <SPI_CE1_pull_up+0x10>
   12a5c:	e3a02001 	mov	r2, #1
   12a60:	e5832040 	str	r2, [r3, #64]	; 0x40
   12a64:	e12fff1e 	bx	lr
   12a68:	000261f8 	.word	0x000261f8

00012a6c <SPI_CE1_pull_down>:
   12a6c:	e59f3008 	ldr	r3, [pc, #8]	; 12a7c <SPI_CE1_pull_down+0x10>
   12a70:	e3a02000 	mov	r2, #0
   12a74:	e5832040 	str	r2, [r3, #64]	; 0x40
   12a78:	e12fff1e 	bx	lr
   12a7c:	000261f8 	.word	0x000261f8

00012a80 <SPI_CE1_no_pull>:
   12a80:	eaffffee 	b	12a40 <SPI_CE1_no_drive>

00012a84 <SPI_CE1_is_high_level>:
   12a84:	e59f3010 	ldr	r3, [pc, #16]	; 12a9c <SPI_CE1_is_high_level+0x18>
   12a88:	e5930040 	ldr	r0, [r3, #64]	; 0x40
   12a8c:	e2400001 	sub	r0, r0, #1
   12a90:	e16f0f10 	clz	r0, r0
   12a94:	e1a002a0 	lsr	r0, r0, #5
   12a98:	e12fff1e 	bx	lr
   12a9c:	000261f8 	.word	0x000261f8

00012aa0 <SPI_CE1_is_low_level>:
   12aa0:	e59f300c 	ldr	r3, [pc, #12]	; 12ab4 <SPI_CE1_is_low_level+0x14>
   12aa4:	e5930040 	ldr	r0, [r3, #64]	; 0x40
   12aa8:	e16f0f10 	clz	r0, r0
   12aac:	e1a002a0 	lsr	r0, r0, #5
   12ab0:	e12fff1e 	bx	lr
   12ab4:	000261f8 	.word	0x000261f8

00012ab8 <SPI_CE1_print_state>:
   12ab8:	e12fff1e 	bx	lr

00012abc <GPIO05_drive_high>:
   12abc:	e59f3008 	ldr	r3, [pc, #8]	; 12acc <GPIO05_drive_high+0x10>
   12ac0:	e3a02001 	mov	r2, #1
   12ac4:	e5832044 	str	r2, [r3, #68]	; 0x44
   12ac8:	e12fff1e 	bx	lr
   12acc:	000261f8 	.word	0x000261f8

00012ad0 <GPIO05_drive_low>:
   12ad0:	e59f3008 	ldr	r3, [pc, #8]	; 12ae0 <GPIO05_drive_low+0x10>
   12ad4:	e3a02000 	mov	r2, #0
   12ad8:	e5832044 	str	r2, [r3, #68]	; 0x44
   12adc:	e12fff1e 	bx	lr
   12ae0:	000261f8 	.word	0x000261f8

00012ae4 <GPIO05_no_drive>:
   12ae4:	e59f3008 	ldr	r3, [pc, #8]	; 12af4 <GPIO05_no_drive+0x10>
   12ae8:	e3a02002 	mov	r2, #2
   12aec:	e5832044 	str	r2, [r3, #68]	; 0x44
   12af0:	e12fff1e 	bx	lr
   12af4:	000261f8 	.word	0x000261f8

00012af8 <GPIO05_toggle_level>:
   12af8:	e12fff1e 	bx	lr

00012afc <GPIO05_pull_up>:
   12afc:	e59f3008 	ldr	r3, [pc, #8]	; 12b0c <GPIO05_pull_up+0x10>
   12b00:	e3a02001 	mov	r2, #1
   12b04:	e5832044 	str	r2, [r3, #68]	; 0x44
   12b08:	e12fff1e 	bx	lr
   12b0c:	000261f8 	.word	0x000261f8

00012b10 <GPIO05_pull_down>:
   12b10:	e59f3008 	ldr	r3, [pc, #8]	; 12b20 <GPIO05_pull_down+0x10>
   12b14:	e3a02000 	mov	r2, #0
   12b18:	e5832044 	str	r2, [r3, #68]	; 0x44
   12b1c:	e12fff1e 	bx	lr
   12b20:	000261f8 	.word	0x000261f8

00012b24 <GPIO05_no_pull>:
   12b24:	eaffffee 	b	12ae4 <GPIO05_no_drive>

00012b28 <GPIO05_is_high_level>:
   12b28:	e59f3010 	ldr	r3, [pc, #16]	; 12b40 <GPIO05_is_high_level+0x18>
   12b2c:	e5930044 	ldr	r0, [r3, #68]	; 0x44
   12b30:	e2400001 	sub	r0, r0, #1
   12b34:	e16f0f10 	clz	r0, r0
   12b38:	e1a002a0 	lsr	r0, r0, #5
   12b3c:	e12fff1e 	bx	lr
   12b40:	000261f8 	.word	0x000261f8

00012b44 <GPIO05_is_low_level>:
   12b44:	e59f300c 	ldr	r3, [pc, #12]	; 12b58 <GPIO05_is_low_level+0x14>
   12b48:	e5930044 	ldr	r0, [r3, #68]	; 0x44
   12b4c:	e16f0f10 	clz	r0, r0
   12b50:	e1a002a0 	lsr	r0, r0, #5
   12b54:	e12fff1e 	bx	lr
   12b58:	000261f8 	.word	0x000261f8

00012b5c <GPIO05_print_state>:
   12b5c:	e12fff1e 	bx	lr

00012b60 <GPIO06_drive_high>:
   12b60:	e59f3008 	ldr	r3, [pc, #8]	; 12b70 <GPIO06_drive_high+0x10>
   12b64:	e3a02001 	mov	r2, #1
   12b68:	e5832048 	str	r2, [r3, #72]	; 0x48
   12b6c:	e12fff1e 	bx	lr
   12b70:	000261f8 	.word	0x000261f8

00012b74 <GPIO06_drive_low>:
   12b74:	e59f3008 	ldr	r3, [pc, #8]	; 12b84 <GPIO06_drive_low+0x10>
   12b78:	e3a02000 	mov	r2, #0
   12b7c:	e5832048 	str	r2, [r3, #72]	; 0x48
   12b80:	e12fff1e 	bx	lr
   12b84:	000261f8 	.word	0x000261f8

00012b88 <GPIO06_no_drive>:
   12b88:	e59f3008 	ldr	r3, [pc, #8]	; 12b98 <GPIO06_no_drive+0x10>
   12b8c:	e3a02002 	mov	r2, #2
   12b90:	e5832048 	str	r2, [r3, #72]	; 0x48
   12b94:	e12fff1e 	bx	lr
   12b98:	000261f8 	.word	0x000261f8

00012b9c <GPIO06_toggle_level>:
   12b9c:	e12fff1e 	bx	lr

00012ba0 <GPIO06_pull_up>:
   12ba0:	e59f3008 	ldr	r3, [pc, #8]	; 12bb0 <GPIO06_pull_up+0x10>
   12ba4:	e3a02001 	mov	r2, #1
   12ba8:	e5832048 	str	r2, [r3, #72]	; 0x48
   12bac:	e12fff1e 	bx	lr
   12bb0:	000261f8 	.word	0x000261f8

00012bb4 <GPIO06_pull_down>:
   12bb4:	e59f3008 	ldr	r3, [pc, #8]	; 12bc4 <GPIO06_pull_down+0x10>
   12bb8:	e3a02000 	mov	r2, #0
   12bbc:	e5832048 	str	r2, [r3, #72]	; 0x48
   12bc0:	e12fff1e 	bx	lr
   12bc4:	000261f8 	.word	0x000261f8

00012bc8 <GPIO06_no_pull>:
   12bc8:	eaffffee 	b	12b88 <GPIO06_no_drive>

00012bcc <GPIO06_is_high_level>:
   12bcc:	e59f3010 	ldr	r3, [pc, #16]	; 12be4 <GPIO06_is_high_level+0x18>
   12bd0:	e5930048 	ldr	r0, [r3, #72]	; 0x48
   12bd4:	e2400001 	sub	r0, r0, #1
   12bd8:	e16f0f10 	clz	r0, r0
   12bdc:	e1a002a0 	lsr	r0, r0, #5
   12be0:	e12fff1e 	bx	lr
   12be4:	000261f8 	.word	0x000261f8

00012be8 <GPIO06_is_low_level>:
   12be8:	e59f300c 	ldr	r3, [pc, #12]	; 12bfc <GPIO06_is_low_level+0x14>
   12bec:	e5930048 	ldr	r0, [r3, #72]	; 0x48
   12bf0:	e16f0f10 	clz	r0, r0
   12bf4:	e1a002a0 	lsr	r0, r0, #5
   12bf8:	e12fff1e 	bx	lr
   12bfc:	000261f8 	.word	0x000261f8

00012c00 <GPIO06_print_state>:
   12c00:	e12fff1e 	bx	lr

00012c04 <GPIO12_drive_high>:
   12c04:	e59f3008 	ldr	r3, [pc, #8]	; 12c14 <GPIO12_drive_high+0x10>
   12c08:	e3a02001 	mov	r2, #1
   12c0c:	e583204c 	str	r2, [r3, #76]	; 0x4c
   12c10:	e12fff1e 	bx	lr
   12c14:	000261f8 	.word	0x000261f8

00012c18 <GPIO12_drive_low>:
   12c18:	e59f3008 	ldr	r3, [pc, #8]	; 12c28 <GPIO12_drive_low+0x10>
   12c1c:	e3a02000 	mov	r2, #0
   12c20:	e583204c 	str	r2, [r3, #76]	; 0x4c
   12c24:	e12fff1e 	bx	lr
   12c28:	000261f8 	.word	0x000261f8

00012c2c <GPIO12_no_drive>:
   12c2c:	e59f3008 	ldr	r3, [pc, #8]	; 12c3c <GPIO12_no_drive+0x10>
   12c30:	e3a02002 	mov	r2, #2
   12c34:	e583204c 	str	r2, [r3, #76]	; 0x4c
   12c38:	e12fff1e 	bx	lr
   12c3c:	000261f8 	.word	0x000261f8

00012c40 <GPIO12_toggle_level>:
   12c40:	e12fff1e 	bx	lr

00012c44 <GPIO12_pull_up>:
   12c44:	e59f3008 	ldr	r3, [pc, #8]	; 12c54 <GPIO12_pull_up+0x10>
   12c48:	e3a02001 	mov	r2, #1
   12c4c:	e583204c 	str	r2, [r3, #76]	; 0x4c
   12c50:	e12fff1e 	bx	lr
   12c54:	000261f8 	.word	0x000261f8

00012c58 <GPIO12_pull_down>:
   12c58:	e59f3008 	ldr	r3, [pc, #8]	; 12c68 <GPIO12_pull_down+0x10>
   12c5c:	e3a02000 	mov	r2, #0
   12c60:	e583204c 	str	r2, [r3, #76]	; 0x4c
   12c64:	e12fff1e 	bx	lr
   12c68:	000261f8 	.word	0x000261f8

00012c6c <GPIO12_no_pull>:
   12c6c:	eaffffee 	b	12c2c <GPIO12_no_drive>

00012c70 <GPIO12_is_high_level>:
   12c70:	e59f3010 	ldr	r3, [pc, #16]	; 12c88 <GPIO12_is_high_level+0x18>
   12c74:	e593004c 	ldr	r0, [r3, #76]	; 0x4c
   12c78:	e2400001 	sub	r0, r0, #1
   12c7c:	e16f0f10 	clz	r0, r0
   12c80:	e1a002a0 	lsr	r0, r0, #5
   12c84:	e12fff1e 	bx	lr
   12c88:	000261f8 	.word	0x000261f8

00012c8c <GPIO12_is_low_level>:
   12c8c:	e59f300c 	ldr	r3, [pc, #12]	; 12ca0 <GPIO12_is_low_level+0x14>
   12c90:	e593004c 	ldr	r0, [r3, #76]	; 0x4c
   12c94:	e16f0f10 	clz	r0, r0
   12c98:	e1a002a0 	lsr	r0, r0, #5
   12c9c:	e12fff1e 	bx	lr
   12ca0:	000261f8 	.word	0x000261f8

00012ca4 <GPIO12_print_state>:
   12ca4:	e12fff1e 	bx	lr

00012ca8 <GPIO13_drive_high>:
   12ca8:	e59f3008 	ldr	r3, [pc, #8]	; 12cb8 <GPIO13_drive_high+0x10>
   12cac:	e3a02001 	mov	r2, #1
   12cb0:	e5832050 	str	r2, [r3, #80]	; 0x50
   12cb4:	e12fff1e 	bx	lr
   12cb8:	000261f8 	.word	0x000261f8

00012cbc <GPIO13_drive_low>:
   12cbc:	e59f3008 	ldr	r3, [pc, #8]	; 12ccc <GPIO13_drive_low+0x10>
   12cc0:	e3a02000 	mov	r2, #0
   12cc4:	e5832050 	str	r2, [r3, #80]	; 0x50
   12cc8:	e12fff1e 	bx	lr
   12ccc:	000261f8 	.word	0x000261f8

00012cd0 <GPIO13_no_drive>:
   12cd0:	e59f3008 	ldr	r3, [pc, #8]	; 12ce0 <GPIO13_no_drive+0x10>
   12cd4:	e3a02002 	mov	r2, #2
   12cd8:	e5832050 	str	r2, [r3, #80]	; 0x50
   12cdc:	e12fff1e 	bx	lr
   12ce0:	000261f8 	.word	0x000261f8

00012ce4 <GPIO13_toggle_level>:
   12ce4:	e12fff1e 	bx	lr

00012ce8 <GPIO13_pull_up>:
   12ce8:	e59f3008 	ldr	r3, [pc, #8]	; 12cf8 <GPIO13_pull_up+0x10>
   12cec:	e3a02001 	mov	r2, #1
   12cf0:	e5832050 	str	r2, [r3, #80]	; 0x50
   12cf4:	e12fff1e 	bx	lr
   12cf8:	000261f8 	.word	0x000261f8

00012cfc <GPIO13_pull_down>:
   12cfc:	e59f3008 	ldr	r3, [pc, #8]	; 12d0c <GPIO13_pull_down+0x10>
   12d00:	e3a02000 	mov	r2, #0
   12d04:	e5832050 	str	r2, [r3, #80]	; 0x50
   12d08:	e12fff1e 	bx	lr
   12d0c:	000261f8 	.word	0x000261f8

00012d10 <GPIO13_no_pull>:
   12d10:	eaffffee 	b	12cd0 <GPIO13_no_drive>

00012d14 <GPIO13_is_high_level>:
   12d14:	e59f3010 	ldr	r3, [pc, #16]	; 12d2c <GPIO13_is_high_level+0x18>
   12d18:	e5930050 	ldr	r0, [r3, #80]	; 0x50
   12d1c:	e2400001 	sub	r0, r0, #1
   12d20:	e16f0f10 	clz	r0, r0
   12d24:	e1a002a0 	lsr	r0, r0, #5
   12d28:	e12fff1e 	bx	lr
   12d2c:	000261f8 	.word	0x000261f8

00012d30 <GPIO13_is_low_level>:
   12d30:	e59f300c 	ldr	r3, [pc, #12]	; 12d44 <GPIO13_is_low_level+0x14>
   12d34:	e5930050 	ldr	r0, [r3, #80]	; 0x50
   12d38:	e16f0f10 	clz	r0, r0
   12d3c:	e1a002a0 	lsr	r0, r0, #5
   12d40:	e12fff1e 	bx	lr
   12d44:	000261f8 	.word	0x000261f8

00012d48 <GPIO13_print_state>:
   12d48:	e12fff1e 	bx	lr

00012d4c <GPIO19_drive_high>:
   12d4c:	e59f3008 	ldr	r3, [pc, #8]	; 12d5c <GPIO19_drive_high+0x10>
   12d50:	e3a02001 	mov	r2, #1
   12d54:	e5832054 	str	r2, [r3, #84]	; 0x54
   12d58:	e12fff1e 	bx	lr
   12d5c:	000261f8 	.word	0x000261f8

00012d60 <GPIO19_drive_low>:
   12d60:	e59f3008 	ldr	r3, [pc, #8]	; 12d70 <GPIO19_drive_low+0x10>
   12d64:	e3a02000 	mov	r2, #0
   12d68:	e5832054 	str	r2, [r3, #84]	; 0x54
   12d6c:	e12fff1e 	bx	lr
   12d70:	000261f8 	.word	0x000261f8

00012d74 <GPIO19_no_drive>:
   12d74:	e59f3008 	ldr	r3, [pc, #8]	; 12d84 <GPIO19_no_drive+0x10>
   12d78:	e3a02002 	mov	r2, #2
   12d7c:	e5832054 	str	r2, [r3, #84]	; 0x54
   12d80:	e12fff1e 	bx	lr
   12d84:	000261f8 	.word	0x000261f8

00012d88 <GPIO19_toggle_level>:
   12d88:	e12fff1e 	bx	lr

00012d8c <GPIO19_pull_up>:
   12d8c:	e59f3008 	ldr	r3, [pc, #8]	; 12d9c <GPIO19_pull_up+0x10>
   12d90:	e3a02001 	mov	r2, #1
   12d94:	e5832054 	str	r2, [r3, #84]	; 0x54
   12d98:	e12fff1e 	bx	lr
   12d9c:	000261f8 	.word	0x000261f8

00012da0 <GPIO19_pull_down>:
   12da0:	e59f3008 	ldr	r3, [pc, #8]	; 12db0 <GPIO19_pull_down+0x10>
   12da4:	e3a02000 	mov	r2, #0
   12da8:	e5832054 	str	r2, [r3, #84]	; 0x54
   12dac:	e12fff1e 	bx	lr
   12db0:	000261f8 	.word	0x000261f8

00012db4 <GPIO19_no_pull>:
   12db4:	eaffffee 	b	12d74 <GPIO19_no_drive>

00012db8 <GPIO19_is_high_level>:
   12db8:	e59f3010 	ldr	r3, [pc, #16]	; 12dd0 <GPIO19_is_high_level+0x18>
   12dbc:	e5930054 	ldr	r0, [r3, #84]	; 0x54
   12dc0:	e2400001 	sub	r0, r0, #1
   12dc4:	e16f0f10 	clz	r0, r0
   12dc8:	e1a002a0 	lsr	r0, r0, #5
   12dcc:	e12fff1e 	bx	lr
   12dd0:	000261f8 	.word	0x000261f8

00012dd4 <GPIO19_is_low_level>:
   12dd4:	e59f300c 	ldr	r3, [pc, #12]	; 12de8 <GPIO19_is_low_level+0x14>
   12dd8:	e5930054 	ldr	r0, [r3, #84]	; 0x54
   12ddc:	e16f0f10 	clz	r0, r0
   12de0:	e1a002a0 	lsr	r0, r0, #5
   12de4:	e12fff1e 	bx	lr
   12de8:	000261f8 	.word	0x000261f8

00012dec <GPIO19_print_state>:
   12dec:	e12fff1e 	bx	lr

00012df0 <GPIO16_drive_high>:
   12df0:	e59f3008 	ldr	r3, [pc, #8]	; 12e00 <GPIO16_drive_high+0x10>
   12df4:	e3a02001 	mov	r2, #1
   12df8:	e5832058 	str	r2, [r3, #88]	; 0x58
   12dfc:	e12fff1e 	bx	lr
   12e00:	000261f8 	.word	0x000261f8

00012e04 <GPIO16_drive_low>:
   12e04:	e59f3008 	ldr	r3, [pc, #8]	; 12e14 <GPIO16_drive_low+0x10>
   12e08:	e3a02000 	mov	r2, #0
   12e0c:	e5832058 	str	r2, [r3, #88]	; 0x58
   12e10:	e12fff1e 	bx	lr
   12e14:	000261f8 	.word	0x000261f8

00012e18 <GPIO16_no_drive>:
   12e18:	e59f3008 	ldr	r3, [pc, #8]	; 12e28 <GPIO16_no_drive+0x10>
   12e1c:	e3a02002 	mov	r2, #2
   12e20:	e5832058 	str	r2, [r3, #88]	; 0x58
   12e24:	e12fff1e 	bx	lr
   12e28:	000261f8 	.word	0x000261f8

00012e2c <GPIO16_toggle_level>:
   12e2c:	e12fff1e 	bx	lr

00012e30 <GPIO16_pull_up>:
   12e30:	e59f3008 	ldr	r3, [pc, #8]	; 12e40 <GPIO16_pull_up+0x10>
   12e34:	e3a02001 	mov	r2, #1
   12e38:	e5832058 	str	r2, [r3, #88]	; 0x58
   12e3c:	e12fff1e 	bx	lr
   12e40:	000261f8 	.word	0x000261f8

00012e44 <GPIO16_pull_down>:
   12e44:	e59f3008 	ldr	r3, [pc, #8]	; 12e54 <GPIO16_pull_down+0x10>
   12e48:	e3a02000 	mov	r2, #0
   12e4c:	e5832058 	str	r2, [r3, #88]	; 0x58
   12e50:	e12fff1e 	bx	lr
   12e54:	000261f8 	.word	0x000261f8

00012e58 <GPIO16_no_pull>:
   12e58:	eaffffee 	b	12e18 <GPIO16_no_drive>

00012e5c <GPIO16_is_high_level>:
   12e5c:	e59f3010 	ldr	r3, [pc, #16]	; 12e74 <GPIO16_is_high_level+0x18>
   12e60:	e5930058 	ldr	r0, [r3, #88]	; 0x58
   12e64:	e2400001 	sub	r0, r0, #1
   12e68:	e16f0f10 	clz	r0, r0
   12e6c:	e1a002a0 	lsr	r0, r0, #5
   12e70:	e12fff1e 	bx	lr
   12e74:	000261f8 	.word	0x000261f8

00012e78 <GPIO16_is_low_level>:
   12e78:	e59f300c 	ldr	r3, [pc, #12]	; 12e8c <GPIO16_is_low_level+0x14>
   12e7c:	e5930058 	ldr	r0, [r3, #88]	; 0x58
   12e80:	e16f0f10 	clz	r0, r0
   12e84:	e1a002a0 	lsr	r0, r0, #5
   12e88:	e12fff1e 	bx	lr
   12e8c:	000261f8 	.word	0x000261f8

00012e90 <GPIO16_print_state>:
   12e90:	e12fff1e 	bx	lr

00012e94 <GPIO26_drive_high>:
   12e94:	e59f3008 	ldr	r3, [pc, #8]	; 12ea4 <GPIO26_drive_high+0x10>
   12e98:	e3a02001 	mov	r2, #1
   12e9c:	e583205c 	str	r2, [r3, #92]	; 0x5c
   12ea0:	e12fff1e 	bx	lr
   12ea4:	000261f8 	.word	0x000261f8

00012ea8 <GPIO26_drive_low>:
   12ea8:	e59f3008 	ldr	r3, [pc, #8]	; 12eb8 <GPIO26_drive_low+0x10>
   12eac:	e3a02000 	mov	r2, #0
   12eb0:	e583205c 	str	r2, [r3, #92]	; 0x5c
   12eb4:	e12fff1e 	bx	lr
   12eb8:	000261f8 	.word	0x000261f8

00012ebc <GPIO26_no_drive>:
   12ebc:	e59f3008 	ldr	r3, [pc, #8]	; 12ecc <GPIO26_no_drive+0x10>
   12ec0:	e3a02002 	mov	r2, #2
   12ec4:	e583205c 	str	r2, [r3, #92]	; 0x5c
   12ec8:	e12fff1e 	bx	lr
   12ecc:	000261f8 	.word	0x000261f8

00012ed0 <GPIO26_toggle_level>:
   12ed0:	e12fff1e 	bx	lr

00012ed4 <GPIO26_pull_up>:
   12ed4:	e59f3008 	ldr	r3, [pc, #8]	; 12ee4 <GPIO26_pull_up+0x10>
   12ed8:	e3a02001 	mov	r2, #1
   12edc:	e583205c 	str	r2, [r3, #92]	; 0x5c
   12ee0:	e12fff1e 	bx	lr
   12ee4:	000261f8 	.word	0x000261f8

00012ee8 <GPIO26_pull_down>:
   12ee8:	e59f3008 	ldr	r3, [pc, #8]	; 12ef8 <GPIO26_pull_down+0x10>
   12eec:	e3a02000 	mov	r2, #0
   12ef0:	e583205c 	str	r2, [r3, #92]	; 0x5c
   12ef4:	e12fff1e 	bx	lr
   12ef8:	000261f8 	.word	0x000261f8

00012efc <GPIO26_no_pull>:
   12efc:	eaffffee 	b	12ebc <GPIO26_no_drive>

00012f00 <GPIO26_is_high_level>:
   12f00:	e59f3010 	ldr	r3, [pc, #16]	; 12f18 <GPIO26_is_high_level+0x18>
   12f04:	e593005c 	ldr	r0, [r3, #92]	; 0x5c
   12f08:	e2400001 	sub	r0, r0, #1
   12f0c:	e16f0f10 	clz	r0, r0
   12f10:	e1a002a0 	lsr	r0, r0, #5
   12f14:	e12fff1e 	bx	lr
   12f18:	000261f8 	.word	0x000261f8

00012f1c <GPIO26_is_low_level>:
   12f1c:	e59f300c 	ldr	r3, [pc, #12]	; 12f30 <GPIO26_is_low_level+0x14>
   12f20:	e593005c 	ldr	r0, [r3, #92]	; 0x5c
   12f24:	e16f0f10 	clz	r0, r0
   12f28:	e1a002a0 	lsr	r0, r0, #5
   12f2c:	e12fff1e 	bx	lr
   12f30:	000261f8 	.word	0x000261f8

00012f34 <GPIO26_print_state>:
   12f34:	e12fff1e 	bx	lr

00012f38 <GPIO20_drive_high>:
   12f38:	e59f3008 	ldr	r3, [pc, #8]	; 12f48 <GPIO20_drive_high+0x10>
   12f3c:	e3a02001 	mov	r2, #1
   12f40:	e5832060 	str	r2, [r3, #96]	; 0x60
   12f44:	e12fff1e 	bx	lr
   12f48:	000261f8 	.word	0x000261f8

00012f4c <GPIO20_drive_low>:
   12f4c:	e59f3008 	ldr	r3, [pc, #8]	; 12f5c <GPIO20_drive_low+0x10>
   12f50:	e3a02000 	mov	r2, #0
   12f54:	e5832060 	str	r2, [r3, #96]	; 0x60
   12f58:	e12fff1e 	bx	lr
   12f5c:	000261f8 	.word	0x000261f8

00012f60 <GPIO20_no_drive>:
   12f60:	e59f3008 	ldr	r3, [pc, #8]	; 12f70 <GPIO20_no_drive+0x10>
   12f64:	e3a02002 	mov	r2, #2
   12f68:	e5832060 	str	r2, [r3, #96]	; 0x60
   12f6c:	e12fff1e 	bx	lr
   12f70:	000261f8 	.word	0x000261f8

00012f74 <GPIO20_toggle_level>:
   12f74:	e12fff1e 	bx	lr

00012f78 <GPIO20_pull_up>:
   12f78:	e59f3008 	ldr	r3, [pc, #8]	; 12f88 <GPIO20_pull_up+0x10>
   12f7c:	e3a02001 	mov	r2, #1
   12f80:	e5832060 	str	r2, [r3, #96]	; 0x60
   12f84:	e12fff1e 	bx	lr
   12f88:	000261f8 	.word	0x000261f8

00012f8c <GPIO20_pull_down>:
   12f8c:	e59f3008 	ldr	r3, [pc, #8]	; 12f9c <GPIO20_pull_down+0x10>
   12f90:	e3a02000 	mov	r2, #0
   12f94:	e5832060 	str	r2, [r3, #96]	; 0x60
   12f98:	e12fff1e 	bx	lr
   12f9c:	000261f8 	.word	0x000261f8

00012fa0 <GPIO20_no_pull>:
   12fa0:	eaffffee 	b	12f60 <GPIO20_no_drive>

00012fa4 <GPIO20_is_high_level>:
   12fa4:	e59f3010 	ldr	r3, [pc, #16]	; 12fbc <GPIO20_is_high_level+0x18>
   12fa8:	e5930060 	ldr	r0, [r3, #96]	; 0x60
   12fac:	e2400001 	sub	r0, r0, #1
   12fb0:	e16f0f10 	clz	r0, r0
   12fb4:	e1a002a0 	lsr	r0, r0, #5
   12fb8:	e12fff1e 	bx	lr
   12fbc:	000261f8 	.word	0x000261f8

00012fc0 <GPIO20_is_low_level>:
   12fc0:	e59f300c 	ldr	r3, [pc, #12]	; 12fd4 <GPIO20_is_low_level+0x14>
   12fc4:	e5930060 	ldr	r0, [r3, #96]	; 0x60
   12fc8:	e16f0f10 	clz	r0, r0
   12fcc:	e1a002a0 	lsr	r0, r0, #5
   12fd0:	e12fff1e 	bx	lr
   12fd4:	000261f8 	.word	0x000261f8

00012fd8 <GPIO20_print_state>:
   12fd8:	e12fff1e 	bx	lr

00012fdc <GPIO21_drive_high>:
   12fdc:	e59f3008 	ldr	r3, [pc, #8]	; 12fec <GPIO21_drive_high+0x10>
   12fe0:	e3a02001 	mov	r2, #1
   12fe4:	e5832064 	str	r2, [r3, #100]	; 0x64
   12fe8:	e12fff1e 	bx	lr
   12fec:	000261f8 	.word	0x000261f8

00012ff0 <GPIO21_drive_low>:
   12ff0:	e59f3008 	ldr	r3, [pc, #8]	; 13000 <GPIO21_drive_low+0x10>
   12ff4:	e3a02000 	mov	r2, #0
   12ff8:	e5832064 	str	r2, [r3, #100]	; 0x64
   12ffc:	e12fff1e 	bx	lr
   13000:	000261f8 	.word	0x000261f8

00013004 <GPIO21_no_drive>:
   13004:	e59f3008 	ldr	r3, [pc, #8]	; 13014 <GPIO21_no_drive+0x10>
   13008:	e3a02002 	mov	r2, #2
   1300c:	e5832064 	str	r2, [r3, #100]	; 0x64
   13010:	e12fff1e 	bx	lr
   13014:	000261f8 	.word	0x000261f8

00013018 <GPIO21_toggle_level>:
   13018:	e12fff1e 	bx	lr

0001301c <GPIO21_pull_up>:
   1301c:	e59f3008 	ldr	r3, [pc, #8]	; 1302c <GPIO21_pull_up+0x10>
   13020:	e3a02001 	mov	r2, #1
   13024:	e5832064 	str	r2, [r3, #100]	; 0x64
   13028:	e12fff1e 	bx	lr
   1302c:	000261f8 	.word	0x000261f8

00013030 <GPIO21_pull_down>:
   13030:	e59f3008 	ldr	r3, [pc, #8]	; 13040 <GPIO21_pull_down+0x10>
   13034:	e3a02000 	mov	r2, #0
   13038:	e5832064 	str	r2, [r3, #100]	; 0x64
   1303c:	e12fff1e 	bx	lr
   13040:	000261f8 	.word	0x000261f8

00013044 <GPIO21_no_pull>:
   13044:	eaffffee 	b	13004 <GPIO21_no_drive>

00013048 <GPIO21_is_high_level>:
   13048:	e59f3010 	ldr	r3, [pc, #16]	; 13060 <GPIO21_is_high_level+0x18>
   1304c:	e5930064 	ldr	r0, [r3, #100]	; 0x64
   13050:	e2400001 	sub	r0, r0, #1
   13054:	e16f0f10 	clz	r0, r0
   13058:	e1a002a0 	lsr	r0, r0, #5
   1305c:	e12fff1e 	bx	lr
   13060:	000261f8 	.word	0x000261f8

00013064 <GPIO21_is_low_level>:
   13064:	e59f300c 	ldr	r3, [pc, #12]	; 13078 <GPIO21_is_low_level+0x14>
   13068:	e5930064 	ldr	r0, [r3, #100]	; 0x64
   1306c:	e16f0f10 	clz	r0, r0
   13070:	e1a002a0 	lsr	r0, r0, #5
   13074:	e12fff1e 	bx	lr
   13078:	000261f8 	.word	0x000261f8

0001307c <GPIO21_print_state>:
   1307c:	e12fff1e 	bx	lr

00013080 <READY_INOUT_drive_high>:
   13080:	e59f3008 	ldr	r3, [pc, #8]	; 13090 <READY_INOUT_drive_high+0x10>
   13084:	e3a02001 	mov	r2, #1
   13088:	e5832068 	str	r2, [r3, #104]	; 0x68
   1308c:	e12fff1e 	bx	lr
   13090:	000261f8 	.word	0x000261f8

00013094 <READY_INOUT_drive_low>:
   13094:	e59f3008 	ldr	r3, [pc, #8]	; 130a4 <READY_INOUT_drive_low+0x10>
   13098:	e3a02000 	mov	r2, #0
   1309c:	e5832068 	str	r2, [r3, #104]	; 0x68
   130a0:	e12fff1e 	bx	lr
   130a4:	000261f8 	.word	0x000261f8

000130a8 <READY_INOUT_no_drive>:
   130a8:	e59f3008 	ldr	r3, [pc, #8]	; 130b8 <READY_INOUT_no_drive+0x10>
   130ac:	e3a02002 	mov	r2, #2
   130b0:	e5832068 	str	r2, [r3, #104]	; 0x68
   130b4:	e12fff1e 	bx	lr
   130b8:	000261f8 	.word	0x000261f8

000130bc <READY_INOUT_toggle_level>:
   130bc:	e12fff1e 	bx	lr

000130c0 <READY_INOUT_pull_up>:
   130c0:	e59f3008 	ldr	r3, [pc, #8]	; 130d0 <READY_INOUT_pull_up+0x10>
   130c4:	e3a02001 	mov	r2, #1
   130c8:	e5832068 	str	r2, [r3, #104]	; 0x68
   130cc:	e12fff1e 	bx	lr
   130d0:	000261f8 	.word	0x000261f8

000130d4 <READY_INOUT_pull_down>:
   130d4:	e59f3008 	ldr	r3, [pc, #8]	; 130e4 <READY_INOUT_pull_down+0x10>
   130d8:	e3a02000 	mov	r2, #0
   130dc:	e5832068 	str	r2, [r3, #104]	; 0x68
   130e0:	e12fff1e 	bx	lr
   130e4:	000261f8 	.word	0x000261f8

000130e8 <READY_INOUT_no_pull>:
   130e8:	eaffffee 	b	130a8 <READY_INOUT_no_drive>

000130ec <READY_INOUT_is_high_level>:
   130ec:	e59f3010 	ldr	r3, [pc, #16]	; 13104 <READY_INOUT_is_high_level+0x18>
   130f0:	e5930068 	ldr	r0, [r3, #104]	; 0x68
   130f4:	e2400001 	sub	r0, r0, #1
   130f8:	e16f0f10 	clz	r0, r0
   130fc:	e1a002a0 	lsr	r0, r0, #5
   13100:	e12fff1e 	bx	lr
   13104:	000261f8 	.word	0x000261f8

00013108 <READY_INOUT_is_low_level>:
   13108:	e59f300c 	ldr	r3, [pc, #12]	; 1311c <READY_INOUT_is_low_level+0x14>
   1310c:	e5930068 	ldr	r0, [r3, #104]	; 0x68
   13110:	e16f0f10 	clz	r0, r0
   13114:	e1a002a0 	lsr	r0, r0, #5
   13118:	e12fff1e 	bx	lr
   1311c:	000261f8 	.word	0x000261f8

00013120 <READY_INOUT_print_state>:
   13120:	e12fff1e 	bx	lr

00013124 <module_status_set_u8>:
   13124:	e5d03000 	ldrb	r3, [r0]
   13128:	e1811003 	orr	r1, r1, r3
   1312c:	e5c01000 	strb	r1, [r0]
   13130:	e12fff1e 	bx	lr

00013134 <module_status_isset_u8>:
   13134:	e5d03000 	ldrb	r3, [r0]
   13138:	e1110003 	tst	r1, r3
   1313c:	13a00001 	movne	r0, #1
   13140:	03a00000 	moveq	r0, #0
   13144:	e12fff1e 	bx	lr

00013148 <module_status_unset_u8>:
   13148:	e5d03000 	ldrb	r3, [r0]
   1314c:	e1c31001 	bic	r1, r3, r1
   13150:	e5c01000 	strb	r1, [r0]
   13154:	e12fff1e 	bx	lr

00013158 <module_status_clear_all_u8>:
   13158:	e3a03000 	mov	r3, #0
   1315c:	e5c03000 	strb	r3, [r0]
   13160:	e12fff1e 	bx	lr

00013164 <module_status_set_u16>:
   13164:	e1d030b0 	ldrh	r3, [r0]
   13168:	e1811003 	orr	r1, r1, r3
   1316c:	e1c010b0 	strh	r1, [r0]
   13170:	e12fff1e 	bx	lr

00013174 <module_status_isset_u16>:
   13174:	e1d030b0 	ldrh	r3, [r0]
   13178:	e1110003 	tst	r1, r3
   1317c:	13a00001 	movne	r0, #1
   13180:	03a00000 	moveq	r0, #0
   13184:	e12fff1e 	bx	lr

00013188 <module_status_unset_u16>:
   13188:	e1d030b0 	ldrh	r3, [r0]
   1318c:	e1c31001 	bic	r1, r3, r1
   13190:	e1c010b0 	strh	r1, [r0]
   13194:	e12fff1e 	bx	lr

00013198 <module_status_clear_all_u16>:
   13198:	e3a03000 	mov	r3, #0
   1319c:	e1c030b0 	strh	r3, [r0]
   131a0:	e12fff1e 	bx	lr

000131a4 <module_status_set_u32>:
   131a4:	e5903000 	ldr	r3, [r0]
   131a8:	e1831001 	orr	r1, r3, r1
   131ac:	e5801000 	str	r1, [r0]
   131b0:	e12fff1e 	bx	lr

000131b4 <module_status_isset_u32>:
   131b4:	e5903000 	ldr	r3, [r0]
   131b8:	e1110003 	tst	r1, r3
   131bc:	13a00001 	movne	r0, #1
   131c0:	03a00000 	moveq	r0, #0
   131c4:	e12fff1e 	bx	lr

000131c8 <module_status_unset_u32>:
   131c8:	e5903000 	ldr	r3, [r0]
   131cc:	e1c31001 	bic	r1, r3, r1
   131d0:	e5801000 	str	r1, [r0]
   131d4:	e12fff1e 	bx	lr

000131d8 <module_status_clear_all_u32>:
   131d8:	e3a03000 	mov	r3, #0
   131dc:	e5803000 	str	r3, [r0]
   131e0:	e12fff1e 	bx	lr

000131e4 <mutex_request>:
   131e4:	e5d03001 	ldrb	r3, [r0, #1]
   131e8:	e3530000 	cmp	r3, #0
   131ec:	1a000006 	bne	1320c <mutex_request+0x28>
   131f0:	e5d03000 	ldrb	r3, [r0]
   131f4:	e3530000 	cmp	r3, #0
   131f8:	e3a03001 	mov	r3, #1
   131fc:	05c03000 	strbeq	r3, [r0]
   13200:	e5c03001 	strb	r3, [r0, #1]
   13204:	e5d00000 	ldrb	r0, [r0]
   13208:	e12fff1e 	bx	lr
   1320c:	e3a00000 	mov	r0, #0
   13210:	e12fff1e 	bx	lr

00013214 <mutex_release>:
   13214:	e5d03001 	ldrb	r3, [r0, #1]
   13218:	e3530000 	cmp	r3, #0
   1321c:	012fff1e 	bxeq	lr
   13220:	e5d03000 	ldrb	r3, [r0]
   13224:	e1530001 	cmp	r3, r1
   13228:	112fff1e 	bxne	lr
   1322c:	e35300fe 	cmp	r3, #254	; 0xfe
   13230:	12833001 	addne	r3, r3, #1
   13234:	03a03001 	moveq	r3, #1
   13238:	16ef3073 	uxtbne	r3, r3
   1323c:	e5c03000 	strb	r3, [r0]
   13240:	e3a03000 	mov	r3, #0
   13244:	e5c03001 	strb	r3, [r0, #1]
   13248:	e12fff1e 	bx	lr

0001324c <mutex_is_requested>:
   1324c:	e5d00001 	ldrb	r0, [r0, #1]
   13250:	e2900000 	adds	r0, r0, #0
   13254:	13a00001 	movne	r0, #1
   13258:	e12fff1e 	bx	lr

0001325c <local_msg_buffer_init>:
   1325c:	e3a03000 	mov	r3, #0
   13260:	e5c0300c 	strb	r3, [r0, #12]
   13264:	e1c030b4 	strh	r3, [r0, #4]
   13268:	e1c030b6 	strh	r3, [r0, #6]
   1326c:	e1c030b8 	strh	r3, [r0, #8]
   13270:	e12fff1e 	bx	lr

00013274 <local_msg_buffer_start_write>:
   13274:	e5d0300c 	ldrb	r3, [r0, #12]
   13278:	e2133002 	ands	r3, r3, #2
   1327c:	15d0300c 	ldrbne	r3, [r0, #12]
   13280:	13833002 	orrne	r3, r3, #2
   13284:	15c0300c 	strbne	r3, [r0, #12]
   13288:	13a03001 	movne	r3, #1
   1328c:	e1a00003 	mov	r0, r3
   13290:	e12fff1e 	bx	lr

00013294 <local_msg_buffer_add_byte>:
   13294:	e5d0300c 	ldrb	r3, [r0, #12]
   13298:	e1d020ba 	ldrh	r2, [r0, #10]
   1329c:	e1d030b8 	ldrh	r3, [r0, #8]
   132a0:	e1520003 	cmp	r2, r3
   132a4:	012fff1e 	bxeq	lr
   132a8:	e1d030b6 	ldrh	r3, [r0, #6]
   132ac:	e5902000 	ldr	r2, [r0]
   132b0:	e6ff3073 	uxth	r3, r3
   132b4:	e7c21003 	strb	r1, [r2, r3]
   132b8:	e1d030b6 	ldrh	r3, [r0, #6]
   132bc:	e1d020ba 	ldrh	r2, [r0, #10]
   132c0:	e2833001 	add	r3, r3, #1
   132c4:	e6ff3073 	uxth	r3, r3
   132c8:	e1c030b6 	strh	r3, [r0, #6]
   132cc:	e1d030b8 	ldrh	r3, [r0, #8]
   132d0:	e2833001 	add	r3, r3, #1
   132d4:	e6ff3073 	uxth	r3, r3
   132d8:	e1c030b8 	strh	r3, [r0, #8]
   132dc:	e1d030b6 	ldrh	r3, [r0, #6]
   132e0:	e1520003 	cmp	r2, r3
   132e4:	03a03000 	moveq	r3, #0
   132e8:	01c030b6 	strheq	r3, [r0, #6]
   132ec:	e12fff1e 	bx	lr

000132f0 <local_msg_buffer_add_word>:
   132f0:	e92d4070 	push	{r4, r5, r6, lr}
   132f4:	e1a04001 	mov	r4, r1
   132f8:	e6ef1071 	uxtb	r1, r1
   132fc:	ebffffe4 	bl	13294 <local_msg_buffer_add_byte>
   13300:	e1a01424 	lsr	r1, r4, #8
   13304:	e8bd4070 	pop	{r4, r5, r6, lr}
   13308:	eaffffe1 	b	13294 <local_msg_buffer_add_byte>

0001330c <local_msg_buffer_add_long>:
   1330c:	e92d4070 	push	{r4, r5, r6, lr}
   13310:	e1a04001 	mov	r4, r1
   13314:	e6ef1071 	uxtb	r1, r1
   13318:	ebffffdd 	bl	13294 <local_msg_buffer_add_byte>
   1331c:	e1a01424 	lsr	r1, r4, #8
   13320:	e6ef1071 	uxtb	r1, r1
   13324:	ebffffda 	bl	13294 <local_msg_buffer_add_byte>
   13328:	e1a01824 	lsr	r1, r4, #16
   1332c:	e6ef1071 	uxtb	r1, r1
   13330:	ebffffd7 	bl	13294 <local_msg_buffer_add_byte>
   13334:	e1a01c24 	lsr	r1, r4, #24
   13338:	e8bd4070 	pop	{r4, r5, r6, lr}
   1333c:	eaffffd4 	b	13294 <local_msg_buffer_add_byte>

00013340 <local_msg_buffer_add_N_bytes>:
   13340:	e92d4070 	push	{r4, r5, r6, lr}
   13344:	e1a06000 	mov	r6, r0
   13348:	e1a04002 	mov	r4, r2
   1334c:	e0815002 	add	r5, r1, r2
   13350:	e1540005 	cmp	r4, r5
   13354:	08bd8070 	popeq	{r4, r5, r6, pc}
   13358:	e4d41001 	ldrb	r1, [r4], #1
   1335c:	e1a00006 	mov	r0, r6
   13360:	ebffffcb 	bl	13294 <local_msg_buffer_add_byte>
   13364:	eafffff9 	b	13350 <local_msg_buffer_add_N_bytes+0x10>

00013368 <local_msg_buffer_stop_write>:
   13368:	e5d0300c 	ldrb	r3, [r0, #12]
   1336c:	e20330fd 	and	r3, r3, #253	; 0xfd
   13370:	e5c0300c 	strb	r3, [r0, #12]
   13374:	e12fff1e 	bx	lr

00013378 <local_msg_buffer_start_read>:
   13378:	e5d0300c 	ldrb	r3, [r0, #12]
   1337c:	e2133001 	ands	r3, r3, #1
   13380:	15d0200c 	ldrbne	r2, [r0, #12]
   13384:	13822001 	orrne	r2, r2, #1
   13388:	15c0200c 	strbne	r2, [r0, #12]
   1338c:	e1a00003 	mov	r0, r3
   13390:	e12fff1e 	bx	lr

00013394 <local_msg_buffer_bytes_available>:
   13394:	e1d000b8 	ldrh	r0, [r0, #8]
   13398:	e12fff1e 	bx	lr

0001339c <local_msg_buffer_bytes_free>:
   1339c:	e1d030b8 	ldrh	r3, [r0, #8]
   133a0:	e1d000ba 	ldrh	r0, [r0, #10]
   133a4:	e0400003 	sub	r0, r0, r3
   133a8:	e6ff0070 	uxth	r0, r0
   133ac:	e12fff1e 	bx	lr

000133b0 <local_msg_buffer_get_byte>:
   133b0:	e5d0200c 	ldrb	r2, [r0, #12]
   133b4:	e1a03000 	mov	r3, r0
   133b8:	e1d000b8 	ldrh	r0, [r0, #8]
   133bc:	e6ff0070 	uxth	r0, r0
   133c0:	e3500000 	cmp	r0, #0
   133c4:	012fff1e 	bxeq	lr
   133c8:	e1d320b4 	ldrh	r2, [r3, #4]
   133cc:	e5931000 	ldr	r1, [r3]
   133d0:	e6ff2072 	uxth	r2, r2
   133d4:	e7d10002 	ldrb	r0, [r1, r2]
   133d8:	e1d320b4 	ldrh	r2, [r3, #4]
   133dc:	e1d310ba 	ldrh	r1, [r3, #10]
   133e0:	e2822001 	add	r2, r2, #1
   133e4:	e6ef0070 	uxtb	r0, r0
   133e8:	e6ff2072 	uxth	r2, r2
   133ec:	e1c320b4 	strh	r2, [r3, #4]
   133f0:	e1d320b8 	ldrh	r2, [r3, #8]
   133f4:	e2422001 	sub	r2, r2, #1
   133f8:	e6ff2072 	uxth	r2, r2
   133fc:	e1c320b8 	strh	r2, [r3, #8]
   13400:	e1d320b4 	ldrh	r2, [r3, #4]
   13404:	e1510002 	cmp	r1, r2
   13408:	03a02000 	moveq	r2, #0
   1340c:	01c320b4 	strheq	r2, [r3, #4]
   13410:	e12fff1e 	bx	lr

00013414 <local_msg_buffer_get_word>:
   13414:	e92d4070 	push	{r4, r5, r6, lr}
   13418:	e1a05000 	mov	r5, r0
   1341c:	ebffffe3 	bl	133b0 <local_msg_buffer_get_byte>
   13420:	e1a04000 	mov	r4, r0
   13424:	e1a00005 	mov	r0, r5
   13428:	ebffffe0 	bl	133b0 <local_msg_buffer_get_byte>
   1342c:	e1840400 	orr	r0, r4, r0, lsl #8
   13430:	e6ff0070 	uxth	r0, r0
   13434:	e8bd8070 	pop	{r4, r5, r6, pc}

00013438 <local_msg_buffer_get_long>:
   13438:	e92d41f0 	push	{r4, r5, r6, r7, r8, lr}
   1343c:	e1a05000 	mov	r5, r0
   13440:	ebffffda 	bl	133b0 <local_msg_buffer_get_byte>
   13444:	e1a06000 	mov	r6, r0
   13448:	e1a00005 	mov	r0, r5
   1344c:	ebffffd7 	bl	133b0 <local_msg_buffer_get_byte>
   13450:	e1a07000 	mov	r7, r0
   13454:	e1a00005 	mov	r0, r5
   13458:	ebffffd4 	bl	133b0 <local_msg_buffer_get_byte>
   1345c:	e1a04800 	lsl	r4, r0, #16
   13460:	e1a00005 	mov	r0, r5
   13464:	ebffffd1 	bl	133b0 <local_msg_buffer_get_byte>
   13468:	e1844407 	orr	r4, r4, r7, lsl #8
   1346c:	e1844006 	orr	r4, r4, r6
   13470:	e1840c00 	orr	r0, r4, r0, lsl #24
   13474:	e8bd81f0 	pop	{r4, r5, r6, r7, r8, pc}

00013478 <local_msg_buffer_get_N_bytes>:
   13478:	e92d41f0 	push	{r4, r5, r6, r7, r8, lr}
   1347c:	e1a05000 	mov	r5, r0
   13480:	e1a06001 	mov	r6, r1
   13484:	e1a07002 	mov	r7, r2
   13488:	e3a04000 	mov	r4, #0
   1348c:	e1540006 	cmp	r4, r6
   13490:	e6ff0074 	uxth	r0, r4
   13494:	08bd81f0 	popeq	{r4, r5, r6, r7, r8, pc}
   13498:	e1d530b8 	ldrh	r3, [r5, #8]
   1349c:	e3530000 	cmp	r3, #0
   134a0:	08bd81f0 	popeq	{r4, r5, r6, r7, r8, pc}
   134a4:	e1a00005 	mov	r0, r5
   134a8:	ebffffc0 	bl	133b0 <local_msg_buffer_get_byte>
   134ac:	e7c70004 	strb	r0, [r7, r4]
   134b0:	e2844001 	add	r4, r4, #1
   134b4:	eafffff4 	b	1348c <local_msg_buffer_get_N_bytes+0x14>

000134b8 <local_msg_buffer_stop_read>:
   134b8:	e5d0300c 	ldrb	r3, [r0, #12]
   134bc:	e20330fe 	and	r3, r3, #254	; 0xfe
   134c0:	e5c0300c 	strb	r3, [r0, #12]
   134c4:	e12fff1e 	bx	lr

000134c8 <local_msg_buffer_clear_all>:
   134c8:	e3a03000 	mov	r3, #0
   134cc:	e1c030b4 	strh	r3, [r0, #4]
   134d0:	e1c030b6 	strh	r3, [r0, #6]
   134d4:	e1c030b8 	strh	r3, [r0, #8]
   134d8:	e12fff1e 	bx	lr

000134dc <local_msg_buffer_debug_print>:
   134dc:	e12fff1e 	bx	lr

000134e0 <signal_slot_init>:
   134e0:	e12fff1e 	bx	lr

000134e4 <signal_slot_send>:
   134e4:	e92d4070 	push	{r4, r5, r6, lr}
   134e8:	e1a05001 	mov	r5, r1
   134ec:	e1d010b2 	ldrh	r1, [r0, #2]
   134f0:	e1a04000 	mov	r4, r0
   134f4:	e3510000 	cmp	r1, #0
   134f8:	1a00000a 	bne	13528 <signal_slot_send+0x44>
   134fc:	eb00010f 	bl	13940 <time_mgmnt_gettime_u16>
   13500:	e1c400b0 	strh	r0, [r4]
   13504:	e5944004 	ldr	r4, [r4, #4]
   13508:	e3540000 	cmp	r4, #0
   1350c:	08bd8070 	popeq	{r4, r5, r6, pc}
   13510:	e5943000 	ldr	r3, [r4]
   13514:	e3530000 	cmp	r3, #0
   13518:	0afffff9 	beq	13504 <signal_slot_send+0x20>
   1351c:	e1a00005 	mov	r0, r5
   13520:	e12fff33 	blx	r3
   13524:	eafffff6 	b	13504 <signal_slot_send+0x20>
   13528:	e1d000b0 	ldrh	r0, [r0]
   1352c:	eb000106 	bl	1394c <time_mgmnt_istimeup_u16>
   13530:	e3500000 	cmp	r0, #0
   13534:	1afffff0 	bne	134fc <signal_slot_send+0x18>
   13538:	e8bd8070 	pop	{r4, r5, r6, pc}

0001353c <signal_slot_connect>:
   1353c:	e5903004 	ldr	r3, [r0, #4]
   13540:	e3530000 	cmp	r3, #0
   13544:	1a000002 	bne	13554 <signal_slot_connect+0x18>
   13548:	e5801004 	str	r1, [r0, #4]
   1354c:	e12fff1e 	bx	lr
   13550:	e1a03002 	mov	r3, r2
   13554:	e5932004 	ldr	r2, [r3, #4]
   13558:	e3520000 	cmp	r2, #0
   1355c:	1afffffb 	bne	13550 <signal_slot_connect+0x14>
   13560:	e5831004 	str	r1, [r3, #4]
   13564:	e5812004 	str	r2, [r1, #4]
   13568:	e12fff1e 	bx	lr

0001356c <__system_interface_add_event_dummy>:
   1356c:	e12fff1e 	bx	lr

00013570 <__system_interface_get_event_dummy>:
   13570:	e3a00000 	mov	r0, #0
   13574:	e12fff1e 	bx	lr

00013578 <__system_interface_progmem_get_byte>:
   13578:	e3a00000 	mov	r0, #0
   1357c:	e12fff1e 	bx	lr

00013580 <__system_interface_progmem_get_word>:
   13580:	e3a00000 	mov	r0, #0
   13584:	e12fff1e 	bx	lr

00013588 <__system_interface_progmem_get_long>:
   13588:	e3a00000 	mov	r0, #0
   1358c:	e12fff1e 	bx	lr

00013590 <__system_interface_progmem_get_N_bytes>:
   13590:	e12fff1e 	bx	lr

00013594 <tracer_hex_dump>:
   13594:	e92d4ff7 	push	{r0, r1, r2, r4, r5, r6, r7, r8, r9, sl, fp, lr}
   13598:	e1a09000 	mov	r9, r0
   1359c:	e1a07001 	mov	r7, r1
   135a0:	e59f00f0 	ldr	r0, [pc, #240]	; 13698 <tracer_hex_dump+0x104>
   135a4:	e3a01000 	mov	r1, #0
   135a8:	ebfff414 	bl	10600 <printf@plt>
   135ac:	e3a04000 	mov	r4, #0
   135b0:	e59fa0e4 	ldr	sl, [pc, #228]	; 1369c <tracer_hex_dump+0x108>
   135b4:	e59fb0e4 	ldr	fp, [pc, #228]	; 136a0 <tracer_hex_dump+0x10c>
   135b8:	e1a06004 	mov	r6, r4
   135bc:	e1a08004 	mov	r8, r4
   135c0:	e1a05004 	mov	r5, r4
   135c4:	e3570000 	cmp	r7, #0
   135c8:	0a000022 	beq	13658 <tracer_hex_dump+0xc4>
   135cc:	e2883001 	add	r3, r8, #1
   135d0:	e7d91008 	ldrb	r1, [r9, r8]
   135d4:	e6ef3073 	uxtb	r3, r3
   135d8:	e1a0000a 	mov	r0, sl
   135dc:	e58d3004 	str	r3, [sp, #4]
   135e0:	e2477001 	sub	r7, r7, #1
   135e4:	ebfff405 	bl	10600 <printf@plt>
   135e8:	e59d3004 	ldr	r3, [sp, #4]
   135ec:	e6ff7077 	uxth	r7, r7
   135f0:	e1a08003 	mov	r8, r3
   135f4:	e3550000 	cmp	r5, #0
   135f8:	e2855001 	add	r5, r5, #1
   135fc:	0a000003 	beq	13610 <tracer_hex_dump+0x7c>
   13600:	e3150007 	tst	r5, #7
   13604:	1a000001 	bne	13610 <tracer_hex_dump+0x7c>
   13608:	e3a00020 	mov	r0, #32
   1360c:	ebfff410 	bl	10654 <putchar@plt>
   13610:	e6ff5075 	uxth	r5, r5
   13614:	e315000f 	tst	r5, #15
   13618:	1affffe9 	bne	135c4 <tracer_hex_dump+0x30>
   1361c:	e1a0000b 	mov	r0, fp
   13620:	ebfff3f6 	bl	10600 <printf@plt>
   13624:	e0892006 	add	r2, r9, r6
   13628:	e1580006 	cmp	r8, r6
   1362c:	8a00000c 	bhi	13664 <tracer_hex_dump+0xd0>
   13630:	e3a0000a 	mov	r0, #10
   13634:	ebfff406 	bl	10654 <putchar@plt>
   13638:	e3570000 	cmp	r7, #0
   1363c:	0a000013 	beq	13690 <tracer_hex_dump+0xfc>
   13640:	e2844010 	add	r4, r4, #16
   13644:	e59f004c 	ldr	r0, [pc, #76]	; 13698 <tracer_hex_dump+0x104>
   13648:	e6ff4074 	uxth	r4, r4
   1364c:	e1a01004 	mov	r1, r4
   13650:	ebfff3ea 	bl	10600 <printf@plt>
   13654:	eaffffda 	b	135c4 <tracer_hex_dump+0x30>
   13658:	e59f0044 	ldr	r0, [pc, #68]	; 136a4 <tracer_hex_dump+0x110>
   1365c:	ebfff3e7 	bl	10600 <printf@plt>
   13660:	eaffffe3 	b	135f4 <tracer_hex_dump+0x60>
   13664:	e4d20001 	ldrb	r0, [r2], #1
   13668:	e2866001 	add	r6, r6, #1
   1366c:	e2403021 	sub	r3, r0, #33	; 0x21
   13670:	e58d2004 	str	r2, [sp, #4]
   13674:	e6ef3073 	uxtb	r3, r3
   13678:	e35300de 	cmp	r3, #222	; 0xde
   1367c:	23a0002e 	movcs	r0, #46	; 0x2e
   13680:	ebfff3f3 	bl	10654 <putchar@plt>
   13684:	e6ef6076 	uxtb	r6, r6
   13688:	e59d2004 	ldr	r2, [sp, #4]
   1368c:	eaffffe5 	b	13628 <tracer_hex_dump+0x94>
   13690:	e28dd00c 	add	sp, sp, #12
   13694:	e8bd8ff0 	pop	{r4, r5, r6, r7, r8, r9, sl, fp, pc}
   13698:	00015478 	.word	0x00015478
   1369c:	00015483 	.word	0x00015483
   136a0:	0001547e 	.word	0x0001547e
   136a4:	00015489 	.word	0x00015489

000136a8 <tracer_init>:
   136a8:	e59f3010 	ldr	r3, [pc, #16]	; 136c0 <tracer_init+0x18>
   136ac:	e3a02001 	mov	r2, #1
   136b0:	e59f000c 	ldr	r0, [pc, #12]	; 136c4 <tracer_init+0x1c>
   136b4:	e5c32000 	strb	r2, [r3]
   136b8:	e5c32001 	strb	r2, [r3, #1]
   136bc:	eafff3db 	b	10630 <puts@plt>
   136c0:	00026264 	.word	0x00026264
   136c4:	0001548d 	.word	0x0001548d

000136c8 <tracer_pass>:
   136c8:	e59fc044 	ldr	ip, [pc, #68]	; 13714 <tracer_pass+0x4c>
   136cc:	e92d41f0 	push	{r4, r5, r6, r7, r8, lr}
   136d0:	e1a07000 	mov	r7, r0
   136d4:	e5dc3001 	ldrb	r3, [ip, #1]
   136d8:	e1a05001 	mov	r5, r1
   136dc:	e1a06002 	mov	r6, r2
   136e0:	e3530000 	cmp	r3, #0
   136e4:	e1a0400c 	mov	r4, ip
   136e8:	1a000000 	bne	136f0 <tracer_pass+0x28>
   136ec:	ebffffed 	bl	136a8 <tracer_init>
   136f0:	e5d43000 	ldrb	r3, [r4]
   136f4:	e3530000 	cmp	r3, #0
   136f8:	08bd81f0 	popeq	{r4, r5, r6, r7, r8, pc}
   136fc:	e1a03007 	mov	r3, r7
   13700:	e1a02006 	mov	r2, r6
   13704:	e1a01005 	mov	r1, r5
   13708:	e59f0008 	ldr	r0, [pc, #8]	; 13718 <tracer_pass+0x50>
   1370c:	e8bd41f0 	pop	{r4, r5, r6, r7, r8, lr}
   13710:	eafff3ba 	b	10600 <printf@plt>
   13714:	00026264 	.word	0x00026264
   13718:	000154b4 	.word	0x000154b4

0001371c <tracer_trace_byte>:
   1371c:	e59fc054 	ldr	ip, [pc, #84]	; 13778 <tracer_trace_byte+0x5c>
   13720:	e92d41f3 	push	{r0, r1, r4, r5, r6, r7, r8, lr}
   13724:	e1a05003 	mov	r5, r3
   13728:	e5dc3001 	ldrb	r3, [ip, #1]
   1372c:	e1a08000 	mov	r8, r0
   13730:	e1a06001 	mov	r6, r1
   13734:	e3530000 	cmp	r3, #0
   13738:	e1a07002 	mov	r7, r2
   1373c:	e1a0400c 	mov	r4, ip
   13740:	1a000000 	bne	13748 <tracer_trace_byte+0x2c>
   13744:	ebffffd7 	bl	136a8 <tracer_init>
   13748:	e5d43000 	ldrb	r3, [r4]
   1374c:	e3530000 	cmp	r3, #0
   13750:	0a000006 	beq	13770 <tracer_trace_byte+0x54>
   13754:	e58d5004 	str	r5, [sp, #4]
   13758:	e58d5000 	str	r5, [sp]
   1375c:	e1a03008 	mov	r3, r8
   13760:	e1a02007 	mov	r2, r7
   13764:	e1a01006 	mov	r1, r6
   13768:	e59f000c 	ldr	r0, [pc, #12]	; 1377c <tracer_trace_byte+0x60>
   1376c:	ebfff3a3 	bl	10600 <printf@plt>
   13770:	e28dd008 	add	sp, sp, #8
   13774:	e8bd81f0 	pop	{r4, r5, r6, r7, r8, pc}
   13778:	00026264 	.word	0x00026264
   1377c:	000154c0 	.word	0x000154c0

00013780 <tracer_trace_word>:
   13780:	e59fc054 	ldr	ip, [pc, #84]	; 137dc <tracer_trace_word+0x5c>
   13784:	e92d41f3 	push	{r0, r1, r4, r5, r6, r7, r8, lr}
   13788:	e1a05003 	mov	r5, r3
   1378c:	e5dc3001 	ldrb	r3, [ip, #1]
   13790:	e1a08000 	mov	r8, r0
   13794:	e1a06001 	mov	r6, r1
   13798:	e3530000 	cmp	r3, #0
   1379c:	e1a07002 	mov	r7, r2
   137a0:	e1a0400c 	mov	r4, ip
   137a4:	1a000000 	bne	137ac <tracer_trace_word+0x2c>
   137a8:	ebffffbe 	bl	136a8 <tracer_init>
   137ac:	e5d43000 	ldrb	r3, [r4]
   137b0:	e3530000 	cmp	r3, #0
   137b4:	0a000006 	beq	137d4 <tracer_trace_word+0x54>
   137b8:	e58d5004 	str	r5, [sp, #4]
   137bc:	e58d5000 	str	r5, [sp]
   137c0:	e1a03008 	mov	r3, r8
   137c4:	e1a02007 	mov	r2, r7
   137c8:	e1a01006 	mov	r1, r6
   137cc:	e59f000c 	ldr	r0, [pc, #12]	; 137e0 <tracer_trace_word+0x60>
   137d0:	ebfff38a 	bl	10600 <printf@plt>
   137d4:	e28dd008 	add	sp, sp, #8
   137d8:	e8bd81f0 	pop	{r4, r5, r6, r7, r8, pc}
   137dc:	00026264 	.word	0x00026264
   137e0:	000154e2 	.word	0x000154e2

000137e4 <tracer_trace_long>:
   137e4:	e59fc02c 	ldr	ip, [pc, #44]	; 13818 <tracer_trace_long+0x34>
   137e8:	e5dcc000 	ldrb	ip, [ip]
   137ec:	e35c0000 	cmp	ip, #0
   137f0:	012fff1e 	bxeq	lr
   137f4:	e1a0c003 	mov	ip, r3
   137f8:	e92d4007 	push	{r0, r1, r2, lr}
   137fc:	e1a03000 	mov	r3, r0
   13800:	e58dc004 	str	ip, [sp, #4]
   13804:	e58dc000 	str	ip, [sp]
   13808:	e59f000c 	ldr	r0, [pc, #12]	; 1381c <tracer_trace_long+0x38>
   1380c:	ebfff37b 	bl	10600 <printf@plt>
   13810:	e28dd00c 	add	sp, sp, #12
   13814:	e49df004 	pop	{pc}		; (ldr pc, [sp], #4)
   13818:	00026264 	.word	0x00026264
   1381c:	00015504 	.word	0x00015504

00013820 <tracer_trace_n>:
   13820:	e92d47f0 	push	{r4, r5, r6, r7, r8, r9, sl, lr}
   13824:	e1a06003 	mov	r6, r3
   13828:	e59f3050 	ldr	r3, [pc, #80]	; 13880 <tracer_trace_n+0x60>
   1382c:	e1a08002 	mov	r8, r2
   13830:	e1a09000 	mov	r9, r0
   13834:	e5d32001 	ldrb	r2, [r3, #1]
   13838:	e1a07001 	mov	r7, r1
   1383c:	e59d5020 	ldr	r5, [sp, #32]
   13840:	e3520000 	cmp	r2, #0
   13844:	e1a04003 	mov	r4, r3
   13848:	1a000000 	bne	13850 <tracer_trace_n+0x30>
   1384c:	ebffff95 	bl	136a8 <tracer_init>
   13850:	e5d43000 	ldrb	r3, [r4]
   13854:	e3530000 	cmp	r3, #0
   13858:	08bd87f0 	popeq	{r4, r5, r6, r7, r8, r9, sl, pc}
   1385c:	e1a01007 	mov	r1, r7
   13860:	e1a03009 	mov	r3, r9
   13864:	e1a02008 	mov	r2, r8
   13868:	e59f0014 	ldr	r0, [pc, #20]	; 13884 <tracer_trace_n+0x64>
   1386c:	ebfff363 	bl	10600 <printf@plt>
   13870:	e1a01006 	mov	r1, r6
   13874:	e1a00005 	mov	r0, r5
   13878:	e8bd47f0 	pop	{r4, r5, r6, r7, r8, r9, sl, lr}
   1387c:	eaffff44 	b	13594 <tracer_hex_dump>
   13880:	00026264 	.word	0x00026264
   13884:	000154b4 	.word	0x000154b4

00013888 <tracer_trace_string>:
   13888:	e59fc050 	ldr	ip, [pc, #80]	; 138e0 <tracer_trace_string+0x58>
   1388c:	e92d41f3 	push	{r0, r1, r4, r5, r6, r7, r8, lr}
   13890:	e1a08003 	mov	r8, r3
   13894:	e5dc3001 	ldrb	r3, [ip, #1]
   13898:	e1a07000 	mov	r7, r0
   1389c:	e1a05001 	mov	r5, r1
   138a0:	e3530000 	cmp	r3, #0
   138a4:	e1a06002 	mov	r6, r2
   138a8:	e1a0400c 	mov	r4, ip
   138ac:	1a000000 	bne	138b4 <tracer_trace_string+0x2c>
   138b0:	ebffff7c 	bl	136a8 <tracer_init>
   138b4:	e5d43000 	ldrb	r3, [r4]
   138b8:	e3530000 	cmp	r3, #0
   138bc:	0a000005 	beq	138d8 <tracer_trace_string+0x50>
   138c0:	e58d8000 	str	r8, [sp]
   138c4:	e1a03007 	mov	r3, r7
   138c8:	e1a02006 	mov	r2, r6
   138cc:	e1a01005 	mov	r1, r5
   138d0:	e59f000c 	ldr	r0, [pc, #12]	; 138e4 <tracer_trace_string+0x5c>
   138d4:	ebfff349 	bl	10600 <printf@plt>
   138d8:	e28dd008 	add	sp, sp, #8
   138dc:	e8bd81f0 	pop	{r4, r5, r6, r7, r8, pc}
   138e0:	00026264 	.word	0x00026264
   138e4:	00015526 	.word	0x00015526

000138e8 <tracer_enable>:
   138e8:	e92d4070 	push	{r4, r5, r6, lr}
   138ec:	e1a05000 	mov	r5, r0
   138f0:	e59f4038 	ldr	r4, [pc, #56]	; 13930 <tracer_enable+0x48>
   138f4:	e5d43001 	ldrb	r3, [r4, #1]
   138f8:	e3530000 	cmp	r3, #0
   138fc:	1a000000 	bne	13904 <tracer_enable+0x1c>
   13900:	ebffff68 	bl	136a8 <tracer_init>
   13904:	e3550000 	cmp	r5, #0
   13908:	0a000004 	beq	13920 <tracer_enable+0x38>
   1390c:	e59f0020 	ldr	r0, [pc, #32]	; 13934 <tracer_enable+0x4c>
   13910:	ebfff346 	bl	10630 <puts@plt>
   13914:	e3a03001 	mov	r3, #1
   13918:	e5c43000 	strb	r3, [r4]
   1391c:	e8bd8070 	pop	{r4, r5, r6, pc}
   13920:	e59f0010 	ldr	r0, [pc, #16]	; 13938 <tracer_enable+0x50>
   13924:	ebfff341 	bl	10630 <puts@plt>
   13928:	e5c45000 	strb	r5, [r4]
   1392c:	e8bd8070 	pop	{r4, r5, r6, pc}
   13930:	00026264 	.word	0x00026264
   13934:	00015543 	.word	0x00015543
   13938:	0001555b 	.word	0x0001555b

0001393c <time_mgmnt_gettime_u8>:
   1393c:	ea00034f 	b	14680 <local_rtc_timer_gettime_u8>

00013940 <time_mgmnt_gettime_u16>:
   13940:	ea000352 	b	14690 <local_rtc_timer_gettime_u16>

00013944 <time_mgmnt_gettime_u32>:
   13944:	ea000333 	b	14618 <local_rtc_timer_gettime_u32>

00013948 <time_mgmnt_istimeup_u8>:
   13948:	ea000354 	b	146a0 <local_rtc_timer_istimeup_u8>

0001394c <time_mgmnt_istimeup_u16>:
   1394c:	ea00035d 	b	146c8 <local_rtc_timer_istimeup_u16>

00013950 <time_mgmnt_istimeup_u32>:
   13950:	ea000366 	b	146f0 <local_rtc_timer_istimeup_u32>

00013954 <time_mgmnt_elapsed_u8>:
   13954:	ea00036e 	b	14714 <rtc_timer_elapsed_u8>

00013958 <time_mgmnt_elapsed_u16>:
   13958:	ea000373 	b	1472c <rtc_timer_elapsed_u16>

0001395c <time_mgmnt_elapsed_u32>:
   1395c:	ea000378 	b	14744 <rtc_timer_elapsed_u32>

00013960 <mcu_task_controller_init>:
   13960:	e59f300c 	ldr	r3, [pc, #12]	; 13974 <mcu_task_controller_init+0x14>
   13964:	e3a02000 	mov	r2, #0
   13968:	e5832000 	str	r2, [r3]
   1396c:	e5832004 	str	r2, [r3, #4]
   13970:	e12fff1e 	bx	lr
   13974:	00026268 	.word	0x00026268

00013978 <mcu_task_controller_register_task>:
   13978:	e92d4070 	push	{r4, r5, r6, lr}
   1397c:	e3a03000 	mov	r3, #0
   13980:	e59f5078 	ldr	r5, [pc, #120]	; 13a00 <mcu_task_controller_register_task+0x88>
   13984:	e580302c 	str	r3, [r0, #44]	; 0x2c
   13988:	e1a04000 	mov	r4, r0
   1398c:	e5d53000 	ldrb	r3, [r5]
   13990:	e5c03000 	strb	r3, [r0]
   13994:	e2833001 	add	r3, r3, #1
   13998:	e5c53000 	strb	r3, [r5]
   1399c:	e5903008 	ldr	r3, [r0, #8]
   139a0:	e12fff33 	blx	r3
   139a4:	e59f3058 	ldr	r3, [pc, #88]	; 13a04 <mcu_task_controller_register_task+0x8c>
   139a8:	e5933004 	ldr	r3, [r3, #4]
   139ac:	e12fff33 	blx	r3
   139b0:	e594300c 	ldr	r3, [r4, #12]
   139b4:	e1c400b4 	strh	r0, [r4, #4]
   139b8:	e12fff33 	blx	r3
   139bc:	e594300c 	ldr	r3, [r4, #12]
   139c0:	e1c400b2 	strh	r0, [r4, #2]
   139c4:	e12fff33 	blx	r3
   139c8:	e5953004 	ldr	r3, [r5, #4]
   139cc:	e1500003 	cmp	r0, r3
   139d0:	2a000002 	bcs	139e0 <mcu_task_controller_register_task+0x68>
   139d4:	e594300c 	ldr	r3, [r4, #12]
   139d8:	e12fff33 	blx	r3
   139dc:	e5850004 	str	r0, [r5, #4]
   139e0:	e59f3020 	ldr	r3, [pc, #32]	; 13a08 <mcu_task_controller_register_task+0x90>
   139e4:	e5932000 	ldr	r2, [r3]
   139e8:	e3520000 	cmp	r2, #0
   139ec:	05834000 	streq	r4, [r3]
   139f0:	15932004 	ldrne	r2, [r3, #4]
   139f4:	e5834004 	str	r4, [r3, #4]
   139f8:	1582402c 	strne	r4, [r2, #44]	; 0x2c
   139fc:	e8bd8070 	pop	{r4, r5, r6, pc}
   13a00:	00026100 	.word	0x00026100
   13a04:	00015434 	.word	0x00015434
   13a08:	00026268 	.word	0x00026268

00013a0c <mcu_task_controller_schedule>:
   13a0c:	e59f30b0 	ldr	r3, [pc, #176]	; 13ac4 <mcu_task_controller_schedule+0xb8>
   13a10:	e92d41f0 	push	{r4, r5, r6, r7, r8, lr}
   13a14:	e3a05001 	mov	r5, #1
   13a18:	e5934000 	ldr	r4, [r3]
   13a1c:	e59f60a4 	ldr	r6, [pc, #164]	; 13ac8 <mcu_task_controller_schedule+0xbc>
   13a20:	e3540000 	cmp	r4, #0
   13a24:	1a000003 	bne	13a38 <mcu_task_controller_schedule+0x2c>
   13a28:	e3550000 	cmp	r5, #0
   13a2c:	08bd81f0 	popeq	{r4, r5, r6, r7, r8, pc}
   13a30:	e8bd41f0 	pop	{r4, r5, r6, r7, r8, lr}
   13a34:	ea000059 	b	13ba0 <mcu_idle_task_run>
   13a38:	e594300c 	ldr	r3, [r4, #12]
   13a3c:	e12fff33 	blx	r3
   13a40:	e3500000 	cmp	r0, #0
   13a44:	1a00000e 	bne	13a84 <mcu_task_controller_schedule+0x78>
   13a48:	e594300c 	ldr	r3, [r4, #12]
   13a4c:	e12fff33 	blx	r3
   13a50:	e3500000 	cmp	r0, #0
   13a54:	1a000012 	bne	13aa4 <mcu_task_controller_schedule+0x98>
   13a58:	e5943010 	ldr	r3, [r4, #16]
   13a5c:	e12fff33 	blx	r3
   13a60:	e3500000 	cmp	r0, #0
   13a64:	0a00000c 	beq	13a9c <mcu_task_controller_schedule+0x90>
   13a68:	e5943014 	ldr	r3, [r4, #20]
   13a6c:	e12fff33 	blx	r3
   13a70:	e5943010 	ldr	r3, [r4, #16]
   13a74:	e12fff33 	blx	r3
   13a78:	e3500000 	cmp	r0, #0
   13a7c:	13a05000 	movne	r5, #0
   13a80:	ea000005 	b	13a9c <mcu_task_controller_schedule+0x90>
   13a84:	e5963010 	ldr	r3, [r6, #16]
   13a88:	e1d410b2 	ldrh	r1, [r4, #2]
   13a8c:	e1d400b4 	ldrh	r0, [r4, #4]
   13a90:	e12fff33 	blx	r3
   13a94:	e3500000 	cmp	r0, #0
   13a98:	1affffea 	bne	13a48 <mcu_task_controller_schedule+0x3c>
   13a9c:	e594402c 	ldr	r4, [r4, #44]	; 0x2c
   13aa0:	eaffffde 	b	13a20 <mcu_task_controller_schedule+0x14>
   13aa4:	e5963004 	ldr	r3, [r6, #4]
   13aa8:	e12fff33 	blx	r3
   13aac:	e594300c 	ldr	r3, [r4, #12]
   13ab0:	e1a07000 	mov	r7, r0
   13ab4:	e12fff33 	blx	r3
   13ab8:	e1c470b4 	strh	r7, [r4, #4]
   13abc:	e1c400b2 	strh	r0, [r4, #2]
   13ac0:	eaffffe4 	b	13a58 <mcu_task_controller_schedule+0x4c>
   13ac4:	00026268 	.word	0x00026268
   13ac8:	00015434 	.word	0x00015434

00013acc <mcu_task_controller_sleep>:
   13acc:	e59f3024 	ldr	r3, [pc, #36]	; 13af8 <mcu_task_controller_sleep+0x2c>
   13ad0:	e92d4010 	push	{r4, lr}
   13ad4:	e5934000 	ldr	r4, [r3]
   13ad8:	e3540000 	cmp	r4, #0
   13adc:	08bd8010 	popeq	{r4, pc}
   13ae0:	e594301c 	ldr	r3, [r4, #28]
   13ae4:	e3530000 	cmp	r3, #0
   13ae8:	0a000000 	beq	13af0 <mcu_task_controller_sleep+0x24>
   13aec:	e12fff33 	blx	r3
   13af0:	e594402c 	ldr	r4, [r4, #44]	; 0x2c
   13af4:	eafffff7 	b	13ad8 <mcu_task_controller_sleep+0xc>
   13af8:	00026268 	.word	0x00026268

00013afc <mcu_task_controller_wakeup>:
   13afc:	e59f3024 	ldr	r3, [pc, #36]	; 13b28 <mcu_task_controller_wakeup+0x2c>
   13b00:	e92d4010 	push	{r4, lr}
   13b04:	e5934000 	ldr	r4, [r3]
   13b08:	e3540000 	cmp	r4, #0
   13b0c:	08bd8010 	popeq	{r4, pc}
   13b10:	e5943020 	ldr	r3, [r4, #32]
   13b14:	e3530000 	cmp	r3, #0
   13b18:	0a000000 	beq	13b20 <mcu_task_controller_wakeup+0x24>
   13b1c:	e12fff33 	blx	r3
   13b20:	e594402c 	ldr	r4, [r4, #44]	; 0x2c
   13b24:	eafffff7 	b	13b08 <mcu_task_controller_wakeup+0xc>
   13b28:	00026268 	.word	0x00026268

00013b2c <mcu_task_controller_terminate_all>:
   13b2c:	e59f3024 	ldr	r3, [pc, #36]	; 13b58 <mcu_task_controller_terminate_all+0x2c>
   13b30:	e92d4010 	push	{r4, lr}
   13b34:	e5934000 	ldr	r4, [r3]
   13b38:	e3540000 	cmp	r4, #0
   13b3c:	08bd8010 	popeq	{r4, pc}
   13b40:	e5943028 	ldr	r3, [r4, #40]	; 0x28
   13b44:	e3530000 	cmp	r3, #0
   13b48:	0a000000 	beq	13b50 <mcu_task_controller_terminate_all+0x24>
   13b4c:	e12fff33 	blx	r3
   13b50:	e594402c 	ldr	r4, [r4, #44]	; 0x2c
   13b54:	eafffff7 	b	13b38 <mcu_task_controller_terminate_all+0xc>
   13b58:	00026268 	.word	0x00026268

00013b5c <mcu_task_controller_background_run>:
   13b5c:	e59f3024 	ldr	r3, [pc, #36]	; 13b88 <mcu_task_controller_background_run+0x2c>
   13b60:	e92d4010 	push	{r4, lr}
   13b64:	e5934000 	ldr	r4, [r3]
   13b68:	e3540000 	cmp	r4, #0
   13b6c:	08bd8010 	popeq	{r4, pc}
   13b70:	e5943018 	ldr	r3, [r4, #24]
   13b74:	e3530000 	cmp	r3, #0
   13b78:	0a000000 	beq	13b80 <mcu_task_controller_background_run+0x24>
   13b7c:	e12fff33 	blx	r3
   13b80:	e594402c 	ldr	r4, [r4, #44]	; 0x2c
   13b84:	eafffff7 	b	13b68 <mcu_task_controller_background_run+0xc>
   13b88:	00026268 	.word	0x00026268

00013b8c <mcu_idle_task_init>:
   13b8c:	e12fff1e 	bx	lr

00013b90 <mcu_idle_task_get_schedule_interval>:
   13b90:	e3a00000 	mov	r0, #0
   13b94:	e12fff1e 	bx	lr

00013b98 <mcu_idle_task_is_runable>:
   13b98:	e3a00002 	mov	r0, #2
   13b9c:	e12fff1e 	bx	lr

00013ba0 <mcu_idle_task_run>:
   13ba0:	e59f0000 	ldr	r0, [pc]	; 13ba8 <mcu_idle_task_run+0x8>
   13ba4:	eafff29e 	b	10624 <usleep@plt>
   13ba8:	00001388 	.word	0x00001388

00013bac <mcu_idle_task_background_run>:
   13bac:	e12fff1e 	bx	lr

00013bb0 <mcu_idle_task_sleep>:
   13bb0:	e12fff1e 	bx	lr

00013bb4 <mcu_idle_task_wakeup>:
   13bb4:	e12fff1e 	bx	lr

00013bb8 <mcu_idle_task_finish>:
   13bb8:	e12fff1e 	bx	lr

00013bbc <mcu_idle_task_terminate>:
   13bbc:	e12fff1e 	bx	lr

00013bc0 <rpi_protocol_task_get_schedule_interval>:
   13bc0:	e59f3010 	ldr	r3, [pc, #16]	; 13bd8 <rpi_protocol_task_get_schedule_interval+0x18>
   13bc4:	e5933000 	ldr	r3, [r3]
   13bc8:	e3530000 	cmp	r3, #0
   13bcc:	03a00005 	moveq	r0, #5
   13bd0:	13a00000 	movne	r0, #0
   13bd4:	e12fff1e 	bx	lr
   13bd8:	00026108 	.word	0x00026108

00013bdc <RPI_COMMAND_BUFFER_bytes_available>:
   13bdc:	e92d4010 	push	{r4, lr}
   13be0:	e59f0008 	ldr	r0, [pc, #8]	; 13bf0 <RPI_COMMAND_BUFFER_bytes_available+0x14>
   13be4:	ebfffdea 	bl	13394 <local_msg_buffer_bytes_available>
   13be8:	e6ef0070 	uxtb	r0, r0
   13bec:	e8bd8010 	pop	{r4, pc}
   13bf0:	0002610c 	.word	0x0002610c

00013bf4 <RPI_ANSWER_BUFFER_start_write>:
   13bf4:	e59f0000 	ldr	r0, [pc]	; 13bfc <RPI_ANSWER_BUFFER_start_write+0x8>
   13bf8:	eafffd9d 	b	13274 <local_msg_buffer_start_write>
   13bfc:	0002611c 	.word	0x0002611c

00013c00 <RPI_ANSWER_BUFFER_add_byte>:
   13c00:	e1a01000 	mov	r1, r0
   13c04:	e59f0000 	ldr	r0, [pc]	; 13c0c <RPI_ANSWER_BUFFER_add_byte+0xc>
   13c08:	eafffda1 	b	13294 <local_msg_buffer_add_byte>
   13c0c:	0002611c 	.word	0x0002611c

00013c10 <RPI_ANSWER_BUFFER_add_word>:
   13c10:	e1a01000 	mov	r1, r0
   13c14:	e59f0000 	ldr	r0, [pc]	; 13c1c <RPI_ANSWER_BUFFER_add_word+0xc>
   13c18:	eafffdb4 	b	132f0 <local_msg_buffer_add_word>
   13c1c:	0002611c 	.word	0x0002611c

00013c20 <RPI_ANSWER_BUFFER_add_long>:
   13c20:	e1a01000 	mov	r1, r0
   13c24:	e59f0000 	ldr	r0, [pc]	; 13c2c <RPI_ANSWER_BUFFER_add_long+0xc>
   13c28:	eafffdb7 	b	1330c <local_msg_buffer_add_long>
   13c2c:	0002611c 	.word	0x0002611c

00013c30 <RPI_ANSWER_BUFFER_add_N_bytes>:
   13c30:	e1a02001 	mov	r2, r1
   13c34:	e1a01000 	mov	r1, r0
   13c38:	e59f0000 	ldr	r0, [pc]	; 13c40 <RPI_ANSWER_BUFFER_add_N_bytes+0x10>
   13c3c:	eafffdbf 	b	13340 <local_msg_buffer_add_N_bytes>
   13c40:	0002611c 	.word	0x0002611c

00013c44 <RPI_ANSWER_BUFFER_stop_write>:
   13c44:	e59f0000 	ldr	r0, [pc]	; 13c4c <RPI_ANSWER_BUFFER_stop_write+0x8>
   13c48:	eafffdc6 	b	13368 <local_msg_buffer_stop_write>
   13c4c:	0002611c 	.word	0x0002611c

00013c50 <RPI_COMMAND_BUFFER_start_read>:
   13c50:	e59f0000 	ldr	r0, [pc]	; 13c58 <RPI_COMMAND_BUFFER_start_read+0x8>
   13c54:	eafffdc7 	b	13378 <local_msg_buffer_start_read>
   13c58:	0002610c 	.word	0x0002610c

00013c5c <RPI_COMMAND_BUFFER_get_byte>:
   13c5c:	e59f0000 	ldr	r0, [pc]	; 13c64 <RPI_COMMAND_BUFFER_get_byte+0x8>
   13c60:	eafffdd2 	b	133b0 <local_msg_buffer_get_byte>
   13c64:	0002610c 	.word	0x0002610c

00013c68 <RPI_COMMAND_BUFFER_get_word>:
   13c68:	e59f0000 	ldr	r0, [pc]	; 13c70 <RPI_COMMAND_BUFFER_get_word+0x8>
   13c6c:	eafffde8 	b	13414 <local_msg_buffer_get_word>
   13c70:	0002610c 	.word	0x0002610c

00013c74 <RPI_COMMAND_BUFFER_get_long>:
   13c74:	e59f0000 	ldr	r0, [pc]	; 13c7c <RPI_COMMAND_BUFFER_get_long+0x8>
   13c78:	eafffdee 	b	13438 <local_msg_buffer_get_long>
   13c7c:	0002610c 	.word	0x0002610c

00013c80 <RPI_COMMAND_BUFFER_get_N_bytes>:
   13c80:	e1a02001 	mov	r2, r1
   13c84:	e1a01000 	mov	r1, r0
   13c88:	e59f0000 	ldr	r0, [pc]	; 13c90 <RPI_COMMAND_BUFFER_get_N_bytes+0x10>
   13c8c:	eafffdf9 	b	13478 <local_msg_buffer_get_N_bytes>
   13c90:	0002610c 	.word	0x0002610c

00013c94 <RPI_COMMAND_BUFFER_stop_read>:
   13c94:	e59f0000 	ldr	r0, [pc]	; 13c9c <RPI_COMMAND_BUFFER_stop_read+0x8>
   13c98:	eafffe06 	b	134b8 <local_msg_buffer_stop_read>
   13c9c:	0002610c 	.word	0x0002610c

00013ca0 <rpi_protocol_task_init>:
   13ca0:	e3a02f7d 	mov	r2, #500	; 0x1f4
   13ca4:	e59f1004 	ldr	r1, [pc, #4]	; 13cb0 <rpi_protocol_task_init+0x10>
   13ca8:	e59f0004 	ldr	r0, [pc, #4]	; 13cb4 <rpi_protocol_task_init+0x14>
   13cac:	eafffe85 	b	136c8 <tracer_pass>
   13cb0:	0001557a 	.word	0x0001557a
   13cb4:	000155cc 	.word	0x000155cc

00013cb8 <rpi_protocol_task_get_state>:
   13cb8:	e92d4010 	push	{r4, lr}
   13cbc:	ebfffd11 	bl	13108 <READY_INOUT_is_low_level>
   13cc0:	e59f4038 	ldr	r4, [pc, #56]	; 13d00 <rpi_protocol_task_get_state+0x48>
   13cc4:	e5943000 	ldr	r3, [r4]
   13cc8:	e2900000 	adds	r0, r0, #0
   13ccc:	13a00001 	movne	r0, #1
   13cd0:	e3530000 	cmp	r3, #0
   13cd4:	13a00000 	movne	r0, #0
   13cd8:	e3500000 	cmp	r0, #0
   13cdc:	0a000005 	beq	13cf8 <rpi_protocol_task_get_state+0x40>
   13ce0:	e3a02f81 	mov	r2, #516	; 0x204
   13ce4:	e59f1018 	ldr	r1, [pc, #24]	; 13d04 <rpi_protocol_task_get_state+0x4c>
   13ce8:	e59f0018 	ldr	r0, [pc, #24]	; 13d08 <rpi_protocol_task_get_state+0x50>
   13cec:	ebfffe75 	bl	136c8 <tracer_pass>
   13cf0:	e3a03002 	mov	r3, #2
   13cf4:	e5843000 	str	r3, [r4]
   13cf8:	e5940000 	ldr	r0, [r4]
   13cfc:	e8bd8010 	pop	{r4, pc}
   13d00:	00026108 	.word	0x00026108
   13d04:	0001557a 	.word	0x0001557a
   13d08:	000155e5 	.word	0x000155e5

00013d0c <RPI_TRX_TIMER_start>:
   13d0c:	e92d4010 	push	{r4, lr}
   13d10:	ebffff0a 	bl	13940 <time_mgmnt_gettime_u16>
   13d14:	e59f3004 	ldr	r3, [pc, #4]	; 13d20 <RPI_TRX_TIMER_start+0x14>
   13d18:	e1c300b0 	strh	r0, [r3]
   13d1c:	e8bd8010 	pop	{r4, pc}
   13d20:	00026270 	.word	0x00026270

00013d24 <_set_finished_spi>:
   13d24:	e92d4010 	push	{r4, lr}
   13d28:	e3a01001 	mov	r1, #1
   13d2c:	e1a04000 	mov	r4, r0
   13d30:	e59f002c 	ldr	r0, [pc, #44]	; 13d64 <_set_finished_spi+0x40>
   13d34:	ebfffd0e 	bl	13174 <module_status_isset_u16>
   13d38:	e3500000 	cmp	r0, #0
   13d3c:	08bd8010 	popeq	{r4, pc}
   13d40:	e59f3020 	ldr	r3, [pc, #32]	; 13d68 <_set_finished_spi+0x44>
   13d44:	e3a01001 	mov	r1, #1
   13d48:	e59f0014 	ldr	r0, [pc, #20]	; 13d64 <_set_finished_spi+0x40>
   13d4c:	e5c34026 	strb	r4, [r3, #38]	; 0x26
   13d50:	ebfffd0c 	bl	13188 <module_status_unset_u16>
   13d54:	e3a01002 	mov	r1, #2
   13d58:	e59f0004 	ldr	r0, [pc, #4]	; 13d64 <_set_finished_spi+0x40>
   13d5c:	e8bd4010 	pop	{r4, lr}
   13d60:	eafffcff 	b	13164 <module_status_set_u16>
   13d64:	00026272 	.word	0x00026272
   13d68:	00026108 	.word	0x00026108

00013d6c <RPI_COMMAND_BUFFER_init>:
   13d6c:	e59f0000 	ldr	r0, [pc]	; 13d74 <RPI_COMMAND_BUFFER_init+0x8>
   13d70:	eafffd39 	b	1325c <local_msg_buffer_init>
   13d74:	0002610c 	.word	0x0002610c

00013d78 <RPI_COMMAND_BUFFER_bytes_free>:
   13d78:	e92d4010 	push	{r4, lr}
   13d7c:	e59f0008 	ldr	r0, [pc, #8]	; 13d8c <RPI_COMMAND_BUFFER_bytes_free+0x14>
   13d80:	ebfffd85 	bl	1339c <local_msg_buffer_bytes_free>
   13d84:	e6ef0070 	uxtb	r0, r0
   13d88:	e8bd8010 	pop	{r4, pc}
   13d8c:	0002610c 	.word	0x0002610c

00013d90 <RPI_COMMAND_BUFFER_clear_all>:
   13d90:	e59f0000 	ldr	r0, [pc]	; 13d98 <RPI_COMMAND_BUFFER_clear_all+0x8>
   13d94:	eafffdcb 	b	134c8 <local_msg_buffer_clear_all>
   13d98:	0002610c 	.word	0x0002610c

00013d9c <RPI_COMMAND_BUFFER_start_write>:
   13d9c:	e59f0000 	ldr	r0, [pc]	; 13da4 <RPI_COMMAND_BUFFER_start_write+0x8>
   13da0:	eafffd33 	b	13274 <local_msg_buffer_start_write>
   13da4:	0002610c 	.word	0x0002610c

00013da8 <RPI_COMMAND_BUFFER_add_byte>:
   13da8:	e1a01000 	mov	r1, r0
   13dac:	e59f0000 	ldr	r0, [pc]	; 13db4 <RPI_COMMAND_BUFFER_add_byte+0xc>
   13db0:	eafffd37 	b	13294 <local_msg_buffer_add_byte>
   13db4:	0002610c 	.word	0x0002610c

00013db8 <RPI_COMMAND_BUFFER_add_word>:
   13db8:	e1a01000 	mov	r1, r0
   13dbc:	e59f0000 	ldr	r0, [pc]	; 13dc4 <RPI_COMMAND_BUFFER_add_word+0xc>
   13dc0:	eafffd4a 	b	132f0 <local_msg_buffer_add_word>
   13dc4:	0002610c 	.word	0x0002610c

00013dc8 <RPI_COMMAND_BUFFER_add_long>:
   13dc8:	e1a01000 	mov	r1, r0
   13dcc:	e59f0000 	ldr	r0, [pc]	; 13dd4 <RPI_COMMAND_BUFFER_add_long+0xc>
   13dd0:	eafffd4d 	b	1330c <local_msg_buffer_add_long>
   13dd4:	0002610c 	.word	0x0002610c

00013dd8 <RPI_COMMAND_BUFFER_add_N_bytes>:
   13dd8:	e1a02001 	mov	r2, r1
   13ddc:	e1a01000 	mov	r1, r0
   13de0:	e59f0000 	ldr	r0, [pc]	; 13de8 <RPI_COMMAND_BUFFER_add_N_bytes+0x10>
   13de4:	eafffd55 	b	13340 <local_msg_buffer_add_N_bytes>
   13de8:	0002610c 	.word	0x0002610c

00013dec <RPI_COMMAND_BUFFER_stop_write>:
   13dec:	e59f0000 	ldr	r0, [pc]	; 13df4 <RPI_COMMAND_BUFFER_stop_write+0x8>
   13df0:	eafffd5c 	b	13368 <local_msg_buffer_stop_write>
   13df4:	0002610c 	.word	0x0002610c

00013df8 <RPI_COMMAND_BUFFER_debug_print>:
   13df8:	e59f0000 	ldr	r0, [pc]	; 13e00 <RPI_COMMAND_BUFFER_debug_print+0x8>
   13dfc:	eafffdb6 	b	134dc <local_msg_buffer_debug_print>
   13e00:	0002610c 	.word	0x0002610c

00013e04 <RPI_COMMAND_BUFFER_size>:
   13e04:	e3a00020 	mov	r0, #32
   13e08:	e12fff1e 	bx	lr

00013e0c <RPI_ANSWER_BUFFER_init>:
   13e0c:	e59f0000 	ldr	r0, [pc]	; 13e14 <RPI_ANSWER_BUFFER_init+0x8>
   13e10:	eafffd11 	b	1325c <local_msg_buffer_init>
   13e14:	0002611c 	.word	0x0002611c

00013e18 <RPI_ANSWER_BUFFER_bytes_available>:
   13e18:	e92d4010 	push	{r4, lr}
   13e1c:	e59f0008 	ldr	r0, [pc, #8]	; 13e2c <RPI_ANSWER_BUFFER_bytes_available+0x14>
   13e20:	ebfffd5b 	bl	13394 <local_msg_buffer_bytes_available>
   13e24:	e6ef0070 	uxtb	r0, r0
   13e28:	e8bd8010 	pop	{r4, pc}
   13e2c:	0002611c 	.word	0x0002611c

00013e30 <RPI_ANSWER_BUFFER_bytes_free>:
   13e30:	e92d4010 	push	{r4, lr}
   13e34:	e59f0008 	ldr	r0, [pc, #8]	; 13e44 <RPI_ANSWER_BUFFER_bytes_free+0x14>
   13e38:	ebfffd57 	bl	1339c <local_msg_buffer_bytes_free>
   13e3c:	e6ef0070 	uxtb	r0, r0
   13e40:	e8bd8010 	pop	{r4, pc}
   13e44:	0002611c 	.word	0x0002611c

00013e48 <RPI_ANSWER_BUFFER_clear_all>:
   13e48:	e59f0000 	ldr	r0, [pc]	; 13e50 <RPI_ANSWER_BUFFER_clear_all+0x8>
   13e4c:	eafffd9d 	b	134c8 <local_msg_buffer_clear_all>
   13e50:	0002611c 	.word	0x0002611c

00013e54 <RPI_ANSWER_BUFFER_start_read>:
   13e54:	e59f0000 	ldr	r0, [pc]	; 13e5c <RPI_ANSWER_BUFFER_start_read+0x8>
   13e58:	eafffd46 	b	13378 <local_msg_buffer_start_read>
   13e5c:	0002611c 	.word	0x0002611c

00013e60 <RPI_ANSWER_BUFFER_get_byte>:
   13e60:	e59f0000 	ldr	r0, [pc]	; 13e68 <RPI_ANSWER_BUFFER_get_byte+0x8>
   13e64:	eafffd51 	b	133b0 <local_msg_buffer_get_byte>
   13e68:	0002611c 	.word	0x0002611c

00013e6c <RPI_ANSWER_BUFFER_get_word>:
   13e6c:	e59f0000 	ldr	r0, [pc]	; 13e74 <RPI_ANSWER_BUFFER_get_word+0x8>
   13e70:	eafffd67 	b	13414 <local_msg_buffer_get_word>
   13e74:	0002611c 	.word	0x0002611c

00013e78 <RPI_ANSWER_BUFFER_get_long>:
   13e78:	e59f0000 	ldr	r0, [pc]	; 13e80 <RPI_ANSWER_BUFFER_get_long+0x8>
   13e7c:	eafffd6d 	b	13438 <local_msg_buffer_get_long>
   13e80:	0002611c 	.word	0x0002611c

00013e84 <RPI_ANSWER_BUFFER_get_N_bytes>:
   13e84:	e1a02001 	mov	r2, r1
   13e88:	e1a01000 	mov	r1, r0
   13e8c:	e59f0000 	ldr	r0, [pc]	; 13e94 <RPI_ANSWER_BUFFER_get_N_bytes+0x10>
   13e90:	eafffd78 	b	13478 <local_msg_buffer_get_N_bytes>
   13e94:	0002611c 	.word	0x0002611c

00013e98 <RPI_ANSWER_BUFFER_stop_read>:
   13e98:	e59f0000 	ldr	r0, [pc]	; 13ea0 <RPI_ANSWER_BUFFER_stop_read+0x8>
   13e9c:	eafffd85 	b	134b8 <local_msg_buffer_stop_read>
   13ea0:	0002611c 	.word	0x0002611c

00013ea4 <RPI_ANSWER_BUFFER_debug_print>:
   13ea4:	e59f0000 	ldr	r0, [pc]	; 13eac <RPI_ANSWER_BUFFER_debug_print+0x8>
   13ea8:	eafffd8b 	b	134dc <local_msg_buffer_debug_print>
   13eac:	0002611c 	.word	0x0002611c

00013eb0 <RPI_ANSWER_BUFFER_size>:
   13eb0:	e3a00020 	mov	r0, #32
   13eb4:	e12fff1e 	bx	lr

00013eb8 <RPI_PROTOCOL_LEAVE_SLEEP_SIGNAL_init>:
   13eb8:	e59f0000 	ldr	r0, [pc]	; 13ec0 <RPI_PROTOCOL_LEAVE_SLEEP_SIGNAL_init+0x8>
   13ebc:	eafffd87 	b	134e0 <signal_slot_init>
   13ec0:	00026274 	.word	0x00026274

00013ec4 <RPI_PROTOCOL_LEAVE_SLEEP_SIGNAL_send>:
   13ec4:	e1a01000 	mov	r1, r0
   13ec8:	e59f0000 	ldr	r0, [pc]	; 13ed0 <RPI_PROTOCOL_LEAVE_SLEEP_SIGNAL_send+0xc>
   13ecc:	eafffd84 	b	134e4 <signal_slot_send>
   13ed0:	00026274 	.word	0x00026274

00013ed4 <RPI_PROTOCOL_LEAVE_SLEEP_SIGNAL_set_timeout>:
   13ed4:	e59f3004 	ldr	r3, [pc, #4]	; 13ee0 <RPI_PROTOCOL_LEAVE_SLEEP_SIGNAL_set_timeout+0xc>
   13ed8:	e1c300b6 	strh	r0, [r3, #6]
   13edc:	e12fff1e 	bx	lr
   13ee0:	00026270 	.word	0x00026270

00013ee4 <RPI_PROTOCOL_LEAVE_SLEEP_SIGNAL_connect>:
   13ee4:	e1a01000 	mov	r1, r0
   13ee8:	e59f0000 	ldr	r0, [pc]	; 13ef0 <RPI_PROTOCOL_LEAVE_SLEEP_SIGNAL_connect+0xc>
   13eec:	eafffd92 	b	1353c <signal_slot_connect>
   13ef0:	00026274 	.word	0x00026274

00013ef4 <RPI_PROTOCOL_ENTER_SLEEP_SIGNAL_init>:
   13ef4:	e59f0000 	ldr	r0, [pc]	; 13efc <RPI_PROTOCOL_ENTER_SLEEP_SIGNAL_init+0x8>
   13ef8:	eafffd78 	b	134e0 <signal_slot_init>
   13efc:	0002627c 	.word	0x0002627c

00013f00 <RPI_PROTOCOL_ENTER_SLEEP_SIGNAL_send>:
   13f00:	e1a01000 	mov	r1, r0
   13f04:	e59f0000 	ldr	r0, [pc]	; 13f0c <RPI_PROTOCOL_ENTER_SLEEP_SIGNAL_send+0xc>
   13f08:	eafffd75 	b	134e4 <signal_slot_send>
   13f0c:	0002627c 	.word	0x0002627c

00013f10 <RPI_PROTOCOL_ENTER_SLEEP_SIGNAL_set_timeout>:
   13f10:	e59f3004 	ldr	r3, [pc, #4]	; 13f1c <RPI_PROTOCOL_ENTER_SLEEP_SIGNAL_set_timeout+0xc>
   13f14:	e1c300be 	strh	r0, [r3, #14]
   13f18:	e12fff1e 	bx	lr
   13f1c:	00026270 	.word	0x00026270

00013f20 <RPI_PROTOCOL_ENTER_SLEEP_SIGNAL_connect>:
   13f20:	e1a01000 	mov	r1, r0
   13f24:	e59f0000 	ldr	r0, [pc]	; 13f2c <RPI_PROTOCOL_ENTER_SLEEP_SIGNAL_connect+0xc>
   13f28:	eafffd83 	b	1353c <signal_slot_connect>
   13f2c:	0002627c 	.word	0x0002627c

00013f30 <RPI_PROTOCOL_INVALID_COMMAND_RECEIVED_SIGNAL_init>:
   13f30:	e59f0000 	ldr	r0, [pc]	; 13f38 <RPI_PROTOCOL_INVALID_COMMAND_RECEIVED_SIGNAL_init+0x8>
   13f34:	eafffd69 	b	134e0 <signal_slot_init>
   13f38:	00026284 	.word	0x00026284

00013f3c <RPI_PROTOCOL_INVALID_COMMAND_RECEIVED_SIGNAL_send>:
   13f3c:	e1a01000 	mov	r1, r0
   13f40:	e59f0000 	ldr	r0, [pc]	; 13f48 <RPI_PROTOCOL_INVALID_COMMAND_RECEIVED_SIGNAL_send+0xc>
   13f44:	eafffd66 	b	134e4 <signal_slot_send>
   13f48:	00026284 	.word	0x00026284

00013f4c <RPI_PROTOCOL_INVALID_COMMAND_RECEIVED_SIGNAL_set_timeout>:
   13f4c:	e59f3004 	ldr	r3, [pc, #4]	; 13f58 <RPI_PROTOCOL_INVALID_COMMAND_RECEIVED_SIGNAL_set_timeout+0xc>
   13f50:	e1c301b6 	strh	r0, [r3, #22]
   13f54:	e12fff1e 	bx	lr
   13f58:	00026270 	.word	0x00026270

00013f5c <RPI_PROTOCOL_INVALID_COMMAND_RECEIVED_SIGNAL_connect>:
   13f5c:	e1a01000 	mov	r1, r0
   13f60:	e59f0000 	ldr	r0, [pc]	; 13f68 <RPI_PROTOCOL_INVALID_COMMAND_RECEIVED_SIGNAL_connect+0xc>
   13f64:	eafffd74 	b	1353c <signal_slot_connect>
   13f68:	00026284 	.word	0x00026284

00013f6c <RPI_PROTOCOL_COMMAND_RECEIVED_SIGNAL_init>:
   13f6c:	e59f0000 	ldr	r0, [pc]	; 13f74 <RPI_PROTOCOL_COMMAND_RECEIVED_SIGNAL_init+0x8>
   13f70:	eafffd5a 	b	134e0 <signal_slot_init>
   13f74:	0002628c 	.word	0x0002628c

00013f78 <RPI_PROTOCOL_COMMAND_RECEIVED_SIGNAL_send>:
   13f78:	e1a01000 	mov	r1, r0
   13f7c:	e59f0000 	ldr	r0, [pc]	; 13f84 <RPI_PROTOCOL_COMMAND_RECEIVED_SIGNAL_send+0xc>
   13f80:	eafffd57 	b	134e4 <signal_slot_send>
   13f84:	0002628c 	.word	0x0002628c

00013f88 <rpi_protocol_task_run>:
   13f88:	e92d4ff0 	push	{r4, r5, r6, r7, r8, r9, sl, fp, lr}
   13f8c:	e24dd034 	sub	sp, sp, #52	; 0x34
   13f90:	e59f44d0 	ldr	r4, [pc, #1232]	; 14468 <rpi_protocol_task_run+0x4e0>
   13f94:	e5943024 	ldr	r3, [r4, #36]	; 0x24
   13f98:	e3530004 	cmp	r3, #4
   13f9c:	979ff103 	ldrls	pc, [pc, r3, lsl #2]
   13fa0:	ea000004 	b	13fb8 <rpi_protocol_task_run+0x30>
   13fa4:	00013fc0 	.word	0x00013fc0
   13fa8:	0001400c 	.word	0x0001400c
   13fac:	00014040 	.word	0x00014040
   13fb0:	000143c0 	.word	0x000143c0
   13fb4:	000143ec 	.word	0x000143ec
   13fb8:	e3a03000 	mov	r3, #0
   13fbc:	e5843024 	str	r3, [r4, #36]	; 0x24
   13fc0:	ebfffc50 	bl	13108 <READY_INOUT_is_low_level>
   13fc4:	e2505000 	subs	r5, r0, #0
   13fc8:	1a000007 	bne	13fec <rpi_protocol_task_run+0x64>
   13fcc:	e59f2498 	ldr	r2, [pc, #1176]	; 1446c <rpi_protocol_task_run+0x4e4>
   13fd0:	e59f1498 	ldr	r1, [pc, #1176]	; 14470 <rpi_protocol_task_run+0x4e8>
   13fd4:	e59f0498 	ldr	r0, [pc, #1176]	; 14474 <rpi_protocol_task_run+0x4ec>
   13fd8:	ebfffdba 	bl	136c8 <tracer_pass>
   13fdc:	e59f3494 	ldr	r3, [pc, #1172]	; 14478 <rpi_protocol_task_run+0x4f0>
   13fe0:	e5835000 	str	r5, [r3]
   13fe4:	e28dd034 	add	sp, sp, #52	; 0x34
   13fe8:	e8bd8ff0 	pop	{r4, r5, r6, r7, r8, r9, sl, fp, pc}
   13fec:	e59f2488 	ldr	r2, [pc, #1160]	; 1447c <rpi_protocol_task_run+0x4f4>
   13ff0:	e59f1478 	ldr	r1, [pc, #1144]	; 14470 <rpi_protocol_task_run+0x4e8>
   13ff4:	e59f0484 	ldr	r0, [pc, #1156]	; 14480 <rpi_protocol_task_run+0x4f8>
   13ff8:	ebfffdb2 	bl	136c8 <tracer_pass>
   13ffc:	e3a00000 	mov	r0, #0
   14000:	ebffffaf 	bl	13ec4 <RPI_PROTOCOL_LEAVE_SLEEP_SIGNAL_send>
   14004:	e3a03001 	mov	r3, #1
   14008:	e5843024 	str	r3, [r4, #36]	; 0x24
   1400c:	e5943038 	ldr	r3, [r4, #56]	; 0x38
   14010:	e59f046c 	ldr	r0, [pc, #1132]	; 14484 <rpi_protocol_task_run+0x4fc>
   14014:	e5933008 	ldr	r3, [r3, #8]
   14018:	e12fff33 	blx	r3
   1401c:	e5943038 	ldr	r3, [r4, #56]	; 0x38
   14020:	e593303c 	ldr	r3, [r3, #60]	; 0x3c
   14024:	e12fff33 	blx	r3
   14028:	e5943038 	ldr	r3, [r4, #56]	; 0x38
   1402c:	e59f0454 	ldr	r0, [pc, #1108]	; 14488 <rpi_protocol_task_run+0x500>
   14030:	e593301c 	ldr	r3, [r3, #28]
   14034:	e12fff33 	blx	r3
   14038:	e3a03002 	mov	r3, #2
   1403c:	e5843024 	str	r3, [r4, #36]	; 0x24
   14040:	ebfffc30 	bl	13108 <READY_INOUT_is_low_level>
   14044:	e3500000 	cmp	r0, #0
   14048:	1a000008 	bne	14070 <rpi_protocol_task_run+0xe8>
   1404c:	e59f2438 	ldr	r2, [pc, #1080]	; 1448c <rpi_protocol_task_run+0x504>
   14050:	e59f1418 	ldr	r1, [pc, #1048]	; 14470 <rpi_protocol_task_run+0x4e8>
   14054:	e59f0434 	ldr	r0, [pc, #1076]	; 14490 <rpi_protocol_task_run+0x508>
   14058:	ebfffd9a 	bl	136c8 <tracer_pass>
   1405c:	ebfffe37 	bl	13940 <time_mgmnt_gettime_u16>
   14060:	e3a03004 	mov	r3, #4
   14064:	e1c403bc 	strh	r0, [r4, #60]	; 0x3c
   14068:	e5843024 	str	r3, [r4, #36]	; 0x24
   1406c:	eaffffdc 	b	13fe4 <rpi_protocol_task_run+0x5c>
   14070:	e3a01002 	mov	r1, #2
   14074:	e59f0418 	ldr	r0, [pc, #1048]	; 14494 <rpi_protocol_task_run+0x50c>
   14078:	ebfffc3d 	bl	13174 <module_status_isset_u16>
   1407c:	e59f63f4 	ldr	r6, [pc, #1012]	; 14478 <rpi_protocol_task_run+0x4f0>
   14080:	e3500000 	cmp	r0, #0
   14084:	0a000021 	beq	14110 <rpi_protocol_task_run+0x188>
   14088:	e3a02f8f 	mov	r2, #572	; 0x23c
   1408c:	e59f13dc 	ldr	r1, [pc, #988]	; 14470 <rpi_protocol_task_run+0x4e8>
   14090:	e59f0400 	ldr	r0, [pc, #1024]	; 14498 <rpi_protocol_task_run+0x510>
   14094:	ebfffd8b 	bl	136c8 <tracer_pass>
   14098:	e3a01002 	mov	r1, #2
   1409c:	e59f03f0 	ldr	r0, [pc, #1008]	; 14494 <rpi_protocol_task_run+0x50c>
   140a0:	ebfffc38 	bl	13188 <module_status_unset_u16>
   140a4:	ebffff5b 	bl	13e18 <RPI_ANSWER_BUFFER_bytes_available>
   140a8:	e5d63025 	ldrb	r3, [r6, #37]	; 0x25
   140ac:	e5cd300d 	strb	r3, [sp, #13]
   140b0:	e5d63026 	ldrb	r3, [r6, #38]	; 0x26
   140b4:	e5cd300e 	strb	r3, [sp, #14]
   140b8:	e5943038 	ldr	r3, [r4, #56]	; 0x38
   140bc:	e5933040 	ldr	r3, [r3, #64]	; 0x40
   140c0:	e2800002 	add	r0, r0, #2
   140c4:	e5cd000c 	strb	r0, [sp, #12]
   140c8:	e12fff33 	blx	r3
   140cc:	e5943038 	ldr	r3, [r4, #56]	; 0x38
   140d0:	e28d100c 	add	r1, sp, #12
   140d4:	e3a00003 	mov	r0, #3
   140d8:	e5933018 	ldr	r3, [r3, #24]
   140dc:	e12fff33 	blx	r3
   140e0:	ebffff5b 	bl	13e54 <RPI_ANSWER_BUFFER_start_read>
   140e4:	ebffff4b 	bl	13e18 <RPI_ANSWER_BUFFER_bytes_available>
   140e8:	e1a05000 	mov	r5, r0
   140ec:	e3550000 	cmp	r5, #0
   140f0:	1a000026 	bne	14190 <rpi_protocol_task_run+0x208>
   140f4:	ebffff67 	bl	13e98 <RPI_ANSWER_BUFFER_stop_read>
   140f8:	e3a01002 	mov	r1, #2
   140fc:	e59f0390 	ldr	r0, [pc, #912]	; 14494 <rpi_protocol_task_run+0x50c>
   14100:	ebfffc20 	bl	13188 <module_status_unset_u16>
   14104:	e5943038 	ldr	r3, [r4, #56]	; 0x38
   14108:	e5933030 	ldr	r3, [r3, #48]	; 0x30
   1410c:	e12fff33 	blx	r3
   14110:	e3a03000 	mov	r3, #0
   14114:	e5c63024 	strb	r3, [r6, #36]	; 0x24
   14118:	ebfffefb 	bl	13d0c <RPI_TRX_TIMER_start>
   1411c:	e59f5378 	ldr	r5, [pc, #888]	; 1449c <rpi_protocol_task_run+0x514>
   14120:	e5943038 	ldr	r3, [r4, #56]	; 0x38
   14124:	e5933010 	ldr	r3, [r3, #16]
   14128:	e12fff33 	blx	r3
   1412c:	e3500000 	cmp	r0, #0
   14130:	0a00003b 	beq	14224 <rpi_protocol_task_run+0x29c>
   14134:	e3a01005 	mov	r1, #5
   14138:	e1d400b0 	ldrh	r0, [r4]
   1413c:	ebfffe02 	bl	1394c <time_mgmnt_istimeup_u16>
   14140:	e2507000 	subs	r7, r0, #0
   14144:	0a000027 	beq	141e8 <rpi_protocol_task_run+0x260>
   14148:	e59f2350 	ldr	r2, [pc, #848]	; 144a0 <rpi_protocol_task_run+0x518>
   1414c:	e59f131c 	ldr	r1, [pc, #796]	; 14470 <rpi_protocol_task_run+0x4e8>
   14150:	e59f034c 	ldr	r0, [pc, #844]	; 144a4 <rpi_protocol_task_run+0x51c>
   14154:	ebfffd5b 	bl	136c8 <tracer_pass>
   14158:	e3a05003 	mov	r5, #3
   1415c:	e5943038 	ldr	r3, [r4, #56]	; 0x38
   14160:	e5d4003e 	ldrb	r0, [r4, #62]	; 0x3e
   14164:	e593304c 	ldr	r3, [r3, #76]	; 0x4c
   14168:	e12fff33 	blx	r3
   1416c:	e3550003 	cmp	r5, #3
   14170:	1a00008a 	bne	143a0 <rpi_protocol_task_run+0x418>
   14174:	e59f232c 	ldr	r2, [pc, #812]	; 144a8 <rpi_protocol_task_run+0x520>
   14178:	e59f12f0 	ldr	r1, [pc, #752]	; 14470 <rpi_protocol_task_run+0x4e8>
   1417c:	e59f0328 	ldr	r0, [pc, #808]	; 144ac <rpi_protocol_task_run+0x524>
   14180:	ebfffd50 	bl	136c8 <tracer_pass>
   14184:	e3a00000 	mov	r0, #0
   14188:	ebffff6b 	bl	13f3c <RPI_PROTOCOL_INVALID_COMMAND_RECEIVED_SIGNAL_send>
   1418c:	eaffff94 	b	13fe4 <rpi_protocol_task_run+0x5c>
   14190:	ebffff26 	bl	13e30 <RPI_ANSWER_BUFFER_bytes_free>
   14194:	e3500000 	cmp	r0, #0
   14198:	0affffd5 	beq	140f4 <rpi_protocol_task_run+0x16c>
   1419c:	e355001f 	cmp	r5, #31
   141a0:	91a07005 	movls	r7, r5
   141a4:	83a07020 	movhi	r7, #32
   141a8:	ebffff20 	bl	13e30 <RPI_ANSWER_BUFFER_bytes_free>
   141ac:	e1500007 	cmp	r0, r7
   141b0:	2a000001 	bcs	141bc <rpi_protocol_task_run+0x234>
   141b4:	ebffff1d 	bl	13e30 <RPI_ANSWER_BUFFER_bytes_free>
   141b8:	e1a07000 	mov	r7, r0
   141bc:	e28d1010 	add	r1, sp, #16
   141c0:	e6ff0077 	uxth	r0, r7
   141c4:	ebffff2e 	bl	13e84 <RPI_ANSWER_BUFFER_get_N_bytes>
   141c8:	e5943038 	ldr	r3, [r4, #56]	; 0x38
   141cc:	e0455007 	sub	r5, r5, r7
   141d0:	e28d1010 	add	r1, sp, #16
   141d4:	e5933018 	ldr	r3, [r3, #24]
   141d8:	e1a00007 	mov	r0, r7
   141dc:	e12fff33 	blx	r3
   141e0:	e6ef5075 	uxtb	r5, r5
   141e4:	eaffffc0 	b	140ec <rpi_protocol_task_run+0x164>
   141e8:	e5943038 	ldr	r3, [r4, #56]	; 0x38
   141ec:	e1a01005 	mov	r1, r5
   141f0:	e3a00001 	mov	r0, #1
   141f4:	e5933014 	ldr	r3, [r3, #20]
   141f8:	e12fff33 	blx	r3
   141fc:	e5d63024 	ldrb	r3, [r6, #36]	; 0x24
   14200:	e3530000 	cmp	r3, #0
   14204:	0affffc5 	beq	14120 <rpi_protocol_task_run+0x198>
   14208:	e35300ff 	cmp	r3, #255	; 0xff
   1420c:	05c67024 	strbeq	r7, [r6, #36]	; 0x24
   14210:	0affffc2 	beq	14120 <rpi_protocol_task_run+0x198>
   14214:	e59f2294 	ldr	r2, [pc, #660]	; 144b0 <rpi_protocol_task_run+0x528>
   14218:	e59f1250 	ldr	r1, [pc, #592]	; 14470 <rpi_protocol_task_run+0x4e8>
   1421c:	e59f0290 	ldr	r0, [pc, #656]	; 144b4 <rpi_protocol_task_run+0x52c>
   14220:	ebfffd3d 	bl	1371c <tracer_trace_byte>
   14224:	e5d63024 	ldrb	r3, [r6, #36]	; 0x24
   14228:	e3530000 	cmp	r3, #0
   1422c:	03a05001 	moveq	r5, #1
   14230:	0affffc9 	beq	1415c <rpi_protocol_task_run+0x1d4>
   14234:	ebfffeb4 	bl	13d0c <RPI_TRX_TIMER_start>
   14238:	e5943038 	ldr	r3, [r4, #56]	; 0x38
   1423c:	e5933010 	ldr	r3, [r3, #16]
   14240:	e12fff33 	blx	r3
   14244:	e3500000 	cmp	r0, #0
   14248:	0a00001f 	beq	142cc <rpi_protocol_task_run+0x344>
   1424c:	e5943038 	ldr	r3, [r4, #56]	; 0x38
   14250:	e59f1260 	ldr	r1, [pc, #608]	; 144b8 <rpi_protocol_task_run+0x530>
   14254:	e3a00001 	mov	r0, #1
   14258:	e5933014 	ldr	r3, [r3, #20]
   1425c:	e12fff33 	blx	r3
   14260:	e5d63024 	ldrb	r3, [r6, #36]	; 0x24
   14264:	e59f2250 	ldr	r2, [pc, #592]	; 144bc <rpi_protocol_task_run+0x534>
   14268:	e59f1200 	ldr	r1, [pc, #512]	; 14470 <rpi_protocol_task_run+0x4e8>
   1426c:	e59f0240 	ldr	r0, [pc, #576]	; 144b4 <rpi_protocol_task_run+0x52c>
   14270:	ebfffd29 	bl	1371c <tracer_trace_byte>
   14274:	e5d63025 	ldrb	r3, [r6, #37]	; 0x25
   14278:	e59f2240 	ldr	r2, [pc, #576]	; 144c0 <rpi_protocol_task_run+0x538>
   1427c:	e59f11ec 	ldr	r1, [pc, #492]	; 14470 <rpi_protocol_task_run+0x4e8>
   14280:	e59f023c 	ldr	r0, [pc, #572]	; 144c4 <rpi_protocol_task_run+0x53c>
   14284:	ebfffd24 	bl	1371c <tracer_trace_byte>
   14288:	ebfffec0 	bl	13d90 <RPI_COMMAND_BUFFER_clear_all>
   1428c:	ebfffec2 	bl	13d9c <RPI_COMMAND_BUFFER_start_write>
   14290:	ebfffe9d 	bl	13d0c <RPI_TRX_TIMER_start>
   14294:	e5d65024 	ldrb	r5, [r6, #36]	; 0x24
   14298:	e59f7228 	ldr	r7, [pc, #552]	; 144c8 <rpi_protocol_task_run+0x540>
   1429c:	e59f81cc 	ldr	r8, [pc, #460]	; 14470 <rpi_protocol_task_run+0x4e8>
   142a0:	e2455001 	sub	r5, r5, #1
   142a4:	e59f9220 	ldr	r9, [pc, #544]	; 144cc <rpi_protocol_task_run+0x544>
   142a8:	e6ef5075 	uxtb	r5, r5
   142ac:	e3550000 	cmp	r5, #0
   142b0:	1a000010 	bne	142f8 <rpi_protocol_task_run+0x370>
   142b4:	ebfffecc 	bl	13dec <RPI_COMMAND_BUFFER_stop_write>
   142b8:	e3a01001 	mov	r1, #1
   142bc:	e59f01d0 	ldr	r0, [pc, #464]	; 14494 <rpi_protocol_task_run+0x50c>
   142c0:	ebfffba7 	bl	13164 <module_status_set_u16>
   142c4:	e3a05002 	mov	r5, #2
   142c8:	eaffffa3 	b	1415c <rpi_protocol_task_run+0x1d4>
   142cc:	e3a0100a 	mov	r1, #10
   142d0:	e1d400b0 	ldrh	r0, [r4]
   142d4:	ebfffd9c 	bl	1394c <time_mgmnt_istimeup_u16>
   142d8:	e3500000 	cmp	r0, #0
   142dc:	0affffd5 	beq	14238 <rpi_protocol_task_run+0x2b0>
   142e0:	e5d63024 	ldrb	r3, [r6, #36]	; 0x24
   142e4:	e59f21e4 	ldr	r2, [pc, #484]	; 144d0 <rpi_protocol_task_run+0x548>
   142e8:	e59f1180 	ldr	r1, [pc, #384]	; 14470 <rpi_protocol_task_run+0x4e8>
   142ec:	e59f01e0 	ldr	r0, [pc, #480]	; 144d4 <rpi_protocol_task_run+0x54c>
   142f0:	ebfffd09 	bl	1371c <tracer_trace_byte>
   142f4:	eaffff97 	b	14158 <rpi_protocol_task_run+0x1d0>
   142f8:	e3a01032 	mov	r1, #50	; 0x32
   142fc:	e1d400b0 	ldrh	r0, [r4]
   14300:	ebfffd91 	bl	1394c <time_mgmnt_istimeup_u16>
   14304:	e3500000 	cmp	r0, #0
   14308:	15d63024 	ldrbne	r3, [r6, #36]	; 0x24
   1430c:	159f21c4 	ldrne	r2, [pc, #452]	; 144d8 <rpi_protocol_task_run+0x550>
   14310:	1afffff4 	bne	142e8 <rpi_protocol_task_run+0x360>
   14314:	e5943038 	ldr	r3, [r4, #56]	; 0x38
   14318:	e5933010 	ldr	r3, [r3, #16]
   1431c:	e12fff33 	blx	r3
   14320:	e3500000 	cmp	r0, #0
   14324:	0affffe0 	beq	142ac <rpi_protocol_task_run+0x324>
   14328:	e5943038 	ldr	r3, [r4, #56]	; 0x38
   1432c:	e5933010 	ldr	r3, [r3, #16]
   14330:	e12fff33 	blx	r3
   14334:	e350001f 	cmp	r0, #31
   14338:	83a00020 	movhi	r0, #32
   1433c:	8a000002 	bhi	1434c <rpi_protocol_task_run+0x3c4>
   14340:	e5943038 	ldr	r3, [r4, #56]	; 0x38
   14344:	e5933010 	ldr	r3, [r3, #16]
   14348:	e12fff33 	blx	r3
   1434c:	e1550000 	cmp	r5, r0
   14350:	e5943038 	ldr	r3, [r4, #56]	; 0x38
   14354:	31a00005 	movcc	r0, r5
   14358:	e28db010 	add	fp, sp, #16
   1435c:	e5933014 	ldr	r3, [r3, #20]
   14360:	e1a0100b 	mov	r1, fp
   14364:	e6ef0070 	uxtb	r0, r0
   14368:	e12fff33 	blx	r3
   1436c:	e1a0100b 	mov	r1, fp
   14370:	e1a0a000 	mov	sl, r0
   14374:	e0455000 	sub	r5, r5, r0
   14378:	e6ff0070 	uxth	r0, r0
   1437c:	ebfffe95 	bl	13dd8 <RPI_COMMAND_BUFFER_add_N_bytes>
   14380:	e58db000 	str	fp, [sp]
   14384:	e1a0300a 	mov	r3, sl
   14388:	e1a02007 	mov	r2, r7
   1438c:	e1a01008 	mov	r1, r8
   14390:	e1a00009 	mov	r0, r9
   14394:	e6ef5075 	uxtb	r5, r5
   14398:	ebfffd20 	bl	13820 <tracer_trace_n>
   1439c:	eaffffc2 	b	142ac <rpi_protocol_task_run+0x324>
   143a0:	e3550002 	cmp	r5, #2
   143a4:	1affff0e 	bne	13fe4 <rpi_protocol_task_run+0x5c>
   143a8:	e3a02e25 	mov	r2, #592	; 0x250
   143ac:	e59f10bc 	ldr	r1, [pc, #188]	; 14470 <rpi_protocol_task_run+0x4e8>
   143b0:	e59f0124 	ldr	r0, [pc, #292]	; 144dc <rpi_protocol_task_run+0x554>
   143b4:	ebfffcc3 	bl	136c8 <tracer_pass>
   143b8:	e3a03003 	mov	r3, #3
   143bc:	e5843024 	str	r3, [r4, #36]	; 0x24
   143c0:	e59f00d4 	ldr	r0, [pc, #212]	; 1449c <rpi_protocol_task_run+0x514>
   143c4:	ebfffeeb 	bl	13f78 <RPI_PROTOCOL_COMMAND_RECEIVED_SIGNAL_send>
   143c8:	e5943038 	ldr	r3, [r4, #56]	; 0x38
   143cc:	e593303c 	ldr	r3, [r3, #60]	; 0x3c
   143d0:	e12fff33 	blx	r3
   143d4:	e59f2104 	ldr	r2, [pc, #260]	; 144e0 <rpi_protocol_task_run+0x558>
   143d8:	e59f1090 	ldr	r1, [pc, #144]	; 14470 <rpi_protocol_task_run+0x4e8>
   143dc:	e59f0100 	ldr	r0, [pc, #256]	; 144e4 <rpi_protocol_task_run+0x55c>
   143e0:	ebfffcb8 	bl	136c8 <tracer_pass>
   143e4:	e3a03002 	mov	r3, #2
   143e8:	eaffff1e 	b	14068 <rpi_protocol_task_run+0xe0>
   143ec:	ebfffb3e 	bl	130ec <READY_INOUT_is_high_level>
   143f0:	e3500000 	cmp	r0, #0
   143f4:	1a000003 	bne	14408 <rpi_protocol_task_run+0x480>
   143f8:	e59f20e8 	ldr	r2, [pc, #232]	; 144e8 <rpi_protocol_task_run+0x560>
   143fc:	e59f106c 	ldr	r1, [pc, #108]	; 14470 <rpi_protocol_task_run+0x4e8>
   14400:	e59f00e4 	ldr	r0, [pc, #228]	; 144ec <rpi_protocol_task_run+0x564>
   14404:	eafffff5 	b	143e0 <rpi_protocol_task_run+0x458>
   14408:	e3a01ffa 	mov	r1, #1000	; 0x3e8
   1440c:	e1d403bc 	ldrh	r0, [r4, #60]	; 0x3c
   14410:	ebfffd4d 	bl	1394c <time_mgmnt_istimeup_u16>
   14414:	e3500000 	cmp	r0, #0
   14418:	0afffef1 	beq	13fe4 <rpi_protocol_task_run+0x5c>
   1441c:	e59f20cc 	ldr	r2, [pc, #204]	; 144f0 <rpi_protocol_task_run+0x568>
   14420:	e59f1048 	ldr	r1, [pc, #72]	; 14470 <rpi_protocol_task_run+0x4e8>
   14424:	e59f00c8 	ldr	r0, [pc, #200]	; 144f4 <rpi_protocol_task_run+0x56c>
   14428:	ebfffca6 	bl	136c8 <tracer_pass>
   1442c:	e5943038 	ldr	r3, [r4, #56]	; 0x38
   14430:	e5933024 	ldr	r3, [r3, #36]	; 0x24
   14434:	e12fff33 	blx	r3
   14438:	e5943038 	ldr	r3, [r4, #56]	; 0x38
   1443c:	e5933038 	ldr	r3, [r3, #56]	; 0x38
   14440:	e12fff33 	blx	r3
   14444:	e5943038 	ldr	r3, [r4, #56]	; 0x38
   14448:	e593300c 	ldr	r3, [r3, #12]
   1444c:	e12fff33 	blx	r3
   14450:	e59f3020 	ldr	r3, [pc, #32]	; 14478 <rpi_protocol_task_run+0x4f0>
   14454:	e3a00000 	mov	r0, #0
   14458:	e5840024 	str	r0, [r4, #36]	; 0x24
   1445c:	e5830000 	str	r0, [r3]
   14460:	ebfffea6 	bl	13f00 <RPI_PROTOCOL_ENTER_SLEEP_SIGNAL_send>
   14464:	eafffede 	b	13fe4 <rpi_protocol_task_run+0x5c>
   14468:	00026270 	.word	0x00026270
   1446c:	00000219 	.word	0x00000219
   14470:	0001557a 	.word	0x0001557a
   14474:	0001563b 	.word	0x0001563b
   14478:	00026108 	.word	0x00026108
   1447c:	0000021e 	.word	0x0000021e
   14480:	0001567f 	.word	0x0001567f
   14484:	00026298 	.word	0x00026298
   14488:	0000ffff 	.word	0x0000ffff
   1448c:	00000233 	.word	0x00000233
   14490:	000156bd 	.word	0x000156bd
   14494:	00026272 	.word	0x00026272
   14498:	00015719 	.word	0x00015719
   1449c:	0002612c 	.word	0x0002612c
   144a0:	00000117 	.word	0x00000117
   144a4:	0001575f 	.word	0x0001575f
   144a8:	00000246 	.word	0x00000246
   144ac:	0001589d 	.word	0x0001589d
   144b0:	00000129 	.word	0x00000129
   144b4:	000157b6 	.word	0x000157b6
   144b8:	0002612d 	.word	0x0002612d
   144bc:	00000141 	.word	0x00000141
   144c0:	00000142 	.word	0x00000142
   144c4:	0001583d 	.word	0x0001583d
   144c8:	00000167 	.word	0x00000167
   144cc:	0001586d 	.word	0x0001586d
   144d0:	00000139 	.word	0x00000139
   144d4:	000157e8 	.word	0x000157e8
   144d8:	0000014e 	.word	0x0000014e
   144dc:	000158ea 	.word	0x000158ea
   144e0:	0000025a 	.word	0x0000025a
   144e4:	0001594c 	.word	0x0001594c
   144e8:	00000262 	.word	0x00000262
   144ec:	000159aa 	.word	0x000159aa
   144f0:	0000026d 	.word	0x0000026d
   144f4:	000159fb 	.word	0x000159fb

000144f8 <RPI_PROTOCOL_COMMAND_RECEIVED_SIGNAL_set_timeout>:
   144f8:	e59f3004 	ldr	r3, [pc, #4]	; 14504 <RPI_PROTOCOL_COMMAND_RECEIVED_SIGNAL_set_timeout+0xc>
   144fc:	e1c301be 	strh	r0, [r3, #30]
   14500:	e12fff1e 	bx	lr
   14504:	00026270 	.word	0x00026270

00014508 <RPI_PROTOCOL_COMMAND_RECEIVED_SIGNAL_connect>:
   14508:	e1a01000 	mov	r1, r0
   1450c:	e59f0000 	ldr	r0, [pc]	; 14514 <RPI_PROTOCOL_COMMAND_RECEIVED_SIGNAL_connect+0xc>
   14510:	eafffc09 	b	1353c <signal_slot_connect>
   14514:	0002628c 	.word	0x0002628c

00014518 <rpi_protocol_init>:
   14518:	e92d4070 	push	{r4, r5, r6, lr}
   1451c:	e1a06000 	mov	r6, r0
   14520:	e59f40b8 	ldr	r4, [pc, #184]	; 145e0 <rpi_protocol_init+0xc8>
   14524:	ebfffada 	bl	13094 <READY_INOUT_drive_low>
   14528:	e59f50b4 	ldr	r5, [pc, #180]	; 145e4 <rpi_protocol_init+0xcc>
   1452c:	e3a02f73 	mov	r2, #460	; 0x1cc
   14530:	e59f10b0 	ldr	r1, [pc, #176]	; 145e8 <rpi_protocol_init+0xd0>
   14534:	e59f00b0 	ldr	r0, [pc, #176]	; 145ec <rpi_protocol_init+0xd4>
   14538:	ebfffc62 	bl	136c8 <tracer_pass>
   1453c:	e2840002 	add	r0, r4, #2
   14540:	ebfffb14 	bl	13198 <module_status_clear_all_u16>
   14544:	e3a03000 	mov	r3, #0
   14548:	e5c53024 	strb	r3, [r5, #36]	; 0x24
   1454c:	e1c532b8 	strh	r3, [r5, #40]	; 0x28
   14550:	ebfffe05 	bl	13d6c <RPI_COMMAND_BUFFER_init>
   14554:	ebfffe2c 	bl	13e0c <RPI_ANSWER_BUFFER_init>
   14558:	ebfffe83 	bl	13f6c <RPI_PROTOCOL_COMMAND_RECEIVED_SIGNAL_init>
   1455c:	ebfffe55 	bl	13eb8 <RPI_PROTOCOL_LEAVE_SLEEP_SIGNAL_init>
   14560:	ebfffe63 	bl	13ef4 <RPI_PROTOCOL_ENTER_SLEEP_SIGNAL_init>
   14564:	ebfffe71 	bl	13f30 <RPI_PROTOCOL_INVALID_COMMAND_RECEIVED_SIGNAL_init>
   14568:	e59f3080 	ldr	r3, [pc, #128]	; 145f0 <rpi_protocol_init+0xd8>
   1456c:	e5846038 	str	r6, [r4, #56]	; 0x38
   14570:	e5930000 	ldr	r0, [r3]
   14574:	e1d330b4 	ldrh	r3, [r3, #4]
   14578:	e5840028 	str	r0, [r4, #40]	; 0x28
   1457c:	e1c432bc 	strh	r3, [r4, #44]	; 0x2c
   14580:	e5963048 	ldr	r3, [r6, #72]	; 0x48
   14584:	e12fff33 	blx	r3
   14588:	e3500000 	cmp	r0, #0
   1458c:	e5c4003e 	strb	r0, [r4, #62]	; 0x3e
   14590:	1a000003 	bne	145a4 <rpi_protocol_init+0x8c>
   14594:	e59f2058 	ldr	r2, [pc, #88]	; 145f4 <rpi_protocol_init+0xdc>
   14598:	e59f1048 	ldr	r1, [pc, #72]	; 145e8 <rpi_protocol_init+0xd0>
   1459c:	e59f0054 	ldr	r0, [pc, #84]	; 145f8 <rpi_protocol_init+0xe0>
   145a0:	ebfffc48 	bl	136c8 <tracer_pass>
   145a4:	e5943038 	ldr	r3, [r4, #56]	; 0x38
   145a8:	e59f004c 	ldr	r0, [pc, #76]	; 145fc <rpi_protocol_init+0xe4>
   145ac:	e5933008 	ldr	r3, [r3, #8]
   145b0:	e12fff33 	blx	r3
   145b4:	e3a03000 	mov	r3, #0
   145b8:	e59f0040 	ldr	r0, [pc, #64]	; 14600 <rpi_protocol_init+0xe8>
   145bc:	e59f2040 	ldr	r2, [pc, #64]	; 14604 <rpi_protocol_init+0xec>
   145c0:	e59f1020 	ldr	r1, [pc, #32]	; 145e8 <rpi_protocol_init+0xd0>
   145c4:	e5853000 	str	r3, [r5]
   145c8:	e5843024 	str	r3, [r4, #36]	; 0x24
   145cc:	ebfffc3d 	bl	136c8 <tracer_pass>
   145d0:	ebfffaba 	bl	130c0 <READY_INOUT_pull_up>
   145d4:	e59f002c 	ldr	r0, [pc, #44]	; 14608 <rpi_protocol_init+0xf0>
   145d8:	e8bd4070 	pop	{r4, r5, r6, lr}
   145dc:	eafffce5 	b	13978 <mcu_task_controller_register_task>
   145e0:	00026270 	.word	0x00026270
   145e4:	00026108 	.word	0x00026108
   145e8:	0001557a 	.word	0x0001557a
   145ec:	00015a4a 	.word	0x00015a4a
   145f0:	00015574 	.word	0x00015574
   145f4:	000001e1 	.word	0x000001e1
   145f8:	00015a6a 	.word	0x00015a6a
   145fc:	00026298 	.word	0x00026298
   14600:	00015aa4 	.word	0x00015aa4
   14604:	000001e9 	.word	0x000001e9
   14608:	00026140 	.word	0x00026140
   1460c:	00000000 	.word	0x00000000

00014610 <rtc_driver_init>:
   14610:	e12fff1e 	bx	lr

00014614 <rtc_driver_deinit>:
   14614:	e12fff1e 	bx	lr

00014618 <local_rtc_timer_gettime_u32>:
   14618:	e92d4007 	push	{r0, r1, r2, lr}
   1461c:	e3a00001 	mov	r0, #1
   14620:	e1a0100d 	mov	r1, sp
   14624:	ebfff016 	bl	10684 <clock_gettime@plt>
   14628:	e3500000 	cmp	r0, #0
   1462c:	13a00000 	movne	r0, #0
   14630:	1a00000c 	bne	14668 <local_rtc_timer_gettime_u32+0x50>
   14634:	eddd7a00 	vldr	s15, [sp]
   14638:	ed9f6b0c 	vldr	d6, [pc, #48]	; 14670 <local_rtc_timer_gettime_u32+0x58>
   1463c:	ed9f4b0d 	vldr	d4, [pc, #52]	; 14678 <local_rtc_timer_gettime_u32+0x60>
   14640:	eeb87be7 	vcvt.f64.s32	d7, s15
   14644:	ee277b06 	vmul.f64	d7, d7, d6
   14648:	eebc7bc7 	vcvt.u32.f64	s14, d7
   1464c:	eddd7a01 	vldr	s15, [sp, #4]
   14650:	eeb85be7 	vcvt.f64.s32	d5, s15
   14654:	ee173a10 	vmov	r3, s14
   14658:	ee856b04 	vdiv.f64	d6, d5, d4
   1465c:	eefc7bc6 	vcvt.u32.f64	s15, d6
   14660:	ee170a90 	vmov	r0, s15
   14664:	e0830000 	add	r0, r3, r0
   14668:	e28dd00c 	add	sp, sp, #12
   1466c:	e49df004 	pop	{pc}		; (ldr pc, [sp], #4)
   14670:	00000000 	.word	0x00000000
   14674:	408f4000 	.word	0x408f4000
   14678:	00000000 	.word	0x00000000
   1467c:	412e8480 	.word	0x412e8480

00014680 <local_rtc_timer_gettime_u8>:
   14680:	e92d4010 	push	{r4, lr}
   14684:	ebffffe3 	bl	14618 <local_rtc_timer_gettime_u32>
   14688:	e6ef0070 	uxtb	r0, r0
   1468c:	e8bd8010 	pop	{r4, pc}

00014690 <local_rtc_timer_gettime_u16>:
   14690:	e92d4010 	push	{r4, lr}
   14694:	ebffffdf 	bl	14618 <local_rtc_timer_gettime_u32>
   14698:	e6ff0070 	uxth	r0, r0
   1469c:	e8bd8010 	pop	{r4, pc}

000146a0 <local_rtc_timer_istimeup_u8>:
   146a0:	e92d4070 	push	{r4, r5, r6, lr}
   146a4:	e1a04000 	mov	r4, r0
   146a8:	e1a05001 	mov	r5, r1
   146ac:	ebffffd9 	bl	14618 <local_rtc_timer_gettime_u32>
   146b0:	e0400004 	sub	r0, r0, r4
   146b4:	e6ef0070 	uxtb	r0, r0
   146b8:	e1550000 	cmp	r5, r0
   146bc:	23a00000 	movcs	r0, #0
   146c0:	33a00001 	movcc	r0, #1
   146c4:	e8bd8070 	pop	{r4, r5, r6, pc}

000146c8 <local_rtc_timer_istimeup_u16>:
   146c8:	e92d4070 	push	{r4, r5, r6, lr}
   146cc:	e1a04000 	mov	r4, r0
   146d0:	e1a05001 	mov	r5, r1
   146d4:	ebffffcf 	bl	14618 <local_rtc_timer_gettime_u32>
   146d8:	e0400004 	sub	r0, r0, r4
   146dc:	e6ff0070 	uxth	r0, r0
   146e0:	e1550000 	cmp	r5, r0
   146e4:	23a00000 	movcs	r0, #0
   146e8:	33a00001 	movcc	r0, #1
   146ec:	e8bd8070 	pop	{r4, r5, r6, pc}

000146f0 <local_rtc_timer_istimeup_u32>:
   146f0:	e92d4070 	push	{r4, r5, r6, lr}
   146f4:	e1a04000 	mov	r4, r0
   146f8:	e1a05001 	mov	r5, r1
   146fc:	ebffffc5 	bl	14618 <local_rtc_timer_gettime_u32>
   14700:	e0400004 	sub	r0, r0, r4
   14704:	e1550000 	cmp	r5, r0
   14708:	23a00000 	movcs	r0, #0
   1470c:	33a00001 	movcc	r0, #1
   14710:	e8bd8070 	pop	{r4, r5, r6, pc}

00014714 <rtc_timer_elapsed_u8>:
   14714:	e92d4010 	push	{r4, lr}
   14718:	e1a04000 	mov	r4, r0
   1471c:	ebffffbd 	bl	14618 <local_rtc_timer_gettime_u32>
   14720:	e0400004 	sub	r0, r0, r4
   14724:	e6ef0070 	uxtb	r0, r0
   14728:	e8bd8010 	pop	{r4, pc}

0001472c <rtc_timer_elapsed_u16>:
   1472c:	e92d4010 	push	{r4, lr}
   14730:	e1a04000 	mov	r4, r0
   14734:	ebffffb7 	bl	14618 <local_rtc_timer_gettime_u32>
   14738:	e0400004 	sub	r0, r0, r4
   1473c:	e6ff0070 	uxth	r0, r0
   14740:	e8bd8010 	pop	{r4, pc}

00014744 <rtc_timer_elapsed_u32>:
   14744:	e92d4010 	push	{r4, lr}
   14748:	e1a04000 	mov	r4, r0
   1474c:	ebffffb1 	bl	14618 <local_rtc_timer_gettime_u32>
   14750:	e0400004 	sub	r0, r0, r4
   14754:	e8bd8010 	pop	{r4, pc}

00014758 <gpio_driver_get_pin_id>:
   14758:	e5d03000 	ldrb	r3, [r0]
   1475c:	e3530001 	cmp	r3, #1
   14760:	1a000005 	bne	1477c <gpio_driver_get_pin_id+0x24>
   14764:	e5d03001 	ldrb	r3, [r0, #1]
   14768:	e3530040 	cmp	r3, #64	; 0x40
   1476c:	13a030ff 	movne	r3, #255	; 0xff
   14770:	03a03007 	moveq	r3, #7
   14774:	e1a00003 	mov	r0, r3
   14778:	e12fff1e 	bx	lr
   1477c:	e3530002 	cmp	r3, #2
   14780:	1a00000f 	bne	147c4 <gpio_driver_get_pin_id+0x6c>
   14784:	e5d02001 	ldrb	r2, [r0, #1]
   14788:	e3520004 	cmp	r2, #4
   1478c:	03a03000 	moveq	r3, #0
   14790:	0afffff7 	beq	14774 <gpio_driver_get_pin_id+0x1c>
   14794:	e3520008 	cmp	r2, #8
   14798:	03a03001 	moveq	r3, #1
   1479c:	0afffff4 	beq	14774 <gpio_driver_get_pin_id+0x1c>
   147a0:	e3520010 	cmp	r2, #16
   147a4:	0afffff2 	beq	14774 <gpio_driver_get_pin_id+0x1c>
   147a8:	e3520040 	cmp	r2, #64	; 0x40
   147ac:	03a03003 	moveq	r3, #3
   147b0:	0affffef 	beq	14774 <gpio_driver_get_pin_id+0x1c>
   147b4:	e3520080 	cmp	r2, #128	; 0x80
   147b8:	13a030ff 	movne	r3, #255	; 0xff
   147bc:	03a03004 	moveq	r3, #4
   147c0:	eaffffeb 	b	14774 <gpio_driver_get_pin_id+0x1c>
   147c4:	e3530003 	cmp	r3, #3
   147c8:	1a00000a 	bne	147f8 <gpio_driver_get_pin_id+0xa0>
   147cc:	e5d03001 	ldrb	r3, [r0, #1]
   147d0:	e3530002 	cmp	r3, #2
   147d4:	03a03005 	moveq	r3, #5
   147d8:	0affffe5 	beq	14774 <gpio_driver_get_pin_id+0x1c>
   147dc:	e3530020 	cmp	r3, #32
   147e0:	03a03006 	moveq	r3, #6
   147e4:	0affffe2 	beq	14774 <gpio_driver_get_pin_id+0x1c>
   147e8:	e3530080 	cmp	r3, #128	; 0x80
   147ec:	13a030ff 	movne	r3, #255	; 0xff
   147f0:	03a0300a 	moveq	r3, #10
   147f4:	eaffffde 	b	14774 <gpio_driver_get_pin_id+0x1c>
   147f8:	e3530004 	cmp	r3, #4
   147fc:	1a00000a 	bne	1482c <gpio_driver_get_pin_id+0xd4>
   14800:	e5d03001 	ldrb	r3, [r0, #1]
   14804:	e3530010 	cmp	r3, #16
   14808:	03a03015 	moveq	r3, #21
   1480c:	0affffd8 	beq	14774 <gpio_driver_get_pin_id+0x1c>
   14810:	e3530040 	cmp	r3, #64	; 0x40
   14814:	03a03016 	moveq	r3, #22
   14818:	0affffd5 	beq	14774 <gpio_driver_get_pin_id+0x1c>
   1481c:	e3530080 	cmp	r3, #128	; 0x80
   14820:	13a030ff 	movne	r3, #255	; 0xff
   14824:	03a0301a 	moveq	r3, #26
   14828:	eaffffd1 	b	14774 <gpio_driver_get_pin_id+0x1c>
   1482c:	e3530005 	cmp	r3, #5
   14830:	13a030ff 	movne	r3, #255	; 0xff
   14834:	1affffce 	bne	14774 <gpio_driver_get_pin_id+0x1c>
   14838:	e5d03001 	ldrb	r3, [r0, #1]
   1483c:	e3530001 	cmp	r3, #1
   14840:	03a03017 	moveq	r3, #23
   14844:	0affffca 	beq	14774 <gpio_driver_get_pin_id+0x1c>
   14848:	e3530004 	cmp	r3, #4
   1484c:	03a03018 	moveq	r3, #24
   14850:	0affffc7 	beq	14774 <gpio_driver_get_pin_id+0x1c>
   14854:	e3530008 	cmp	r3, #8
   14858:	03a0301b 	moveq	r3, #27
   1485c:	0affffc4 	beq	14774 <gpio_driver_get_pin_id+0x1c>
   14860:	e3530010 	cmp	r3, #16
   14864:	03a03019 	moveq	r3, #25
   14868:	0affffc1 	beq	14774 <gpio_driver_get_pin_id+0x1c>
   1486c:	e3530020 	cmp	r3, #32
   14870:	03a0301c 	moveq	r3, #28
   14874:	0affffbe 	beq	14774 <gpio_driver_get_pin_id+0x1c>
   14878:	e3530080 	cmp	r3, #128	; 0x80
   1487c:	13a030ff 	movne	r3, #255	; 0xff
   14880:	03a0301d 	moveq	r3, #29
   14884:	eaffffba 	b	14774 <gpio_driver_get_pin_id+0x1c>

00014888 <gpio_driver_set_direction>:
   14888:	e92d4010 	push	{r4, lr}
   1488c:	ebffffb1 	bl	14758 <gpio_driver_get_pin_id>
   14890:	e8bd4010 	pop	{r4, lr}
   14894:	e2411001 	sub	r1, r1, #1
   14898:	e16f1f11 	clz	r1, r1
   1489c:	e1a012a1 	lsr	r1, r1, #5
   148a0:	eaffef6e 	b	10660 <pinMode@plt>

000148a4 <gpio_driver_set_level>:
   148a4:	e92d4010 	push	{r4, lr}
   148a8:	e1a04000 	mov	r4, r0
   148ac:	ebffffa9 	bl	14758 <gpio_driver_get_pin_id>
   148b0:	e5d43002 	ldrb	r3, [r4, #2]
   148b4:	e1b033a3 	lsrs	r3, r3, #7
   148b8:	0a000001 	beq	148c4 <gpio_driver_set_level+0x20>
   148bc:	e2511001 	subs	r1, r1, #1
   148c0:	13a01001 	movne	r1, #1
   148c4:	e3510000 	cmp	r1, #0
   148c8:	0a000001 	beq	148d4 <gpio_driver_set_level+0x30>
   148cc:	e3510001 	cmp	r1, #1
   148d0:	1a000001 	bne	148dc <gpio_driver_set_level+0x38>
   148d4:	e8bd4010 	pop	{r4, lr}
   148d8:	eaffef4e 	b	10618 <digitalWrite@plt>
   148dc:	e3a01002 	mov	r1, #2
   148e0:	e8bd4010 	pop	{r4, lr}
   148e4:	eaffef63 	b	10678 <pullUpDnControl@plt>

000148e8 <gpio_driver_init_pin>:
   148e8:	e92d4010 	push	{r4, lr}
   148ec:	e1a04000 	mov	r4, r0
   148f0:	e5d01002 	ldrb	r1, [r0, #2]
   148f4:	e2111008 	ands	r1, r1, #8
   148f8:	13a01001 	movne	r1, #1
   148fc:	ebffffe1 	bl	14888 <gpio_driver_set_direction>
   14900:	e5d43002 	ldrb	r3, [r4, #2]
   14904:	e3130020 	tst	r3, #32
   14908:	13a01000 	movne	r1, #0
   1490c:	1a000002 	bne	1491c <gpio_driver_init_pin+0x34>
   14910:	e3130040 	tst	r3, #64	; 0x40
   14914:	03a01002 	moveq	r1, #2
   14918:	13a01001 	movne	r1, #1
   1491c:	e1a00004 	mov	r0, r4
   14920:	e8bd4010 	pop	{r4, lr}
   14924:	eaffffde 	b	148a4 <gpio_driver_set_level>

00014928 <gpio_driver_init>:
   14928:	e92d4010 	push	{r4, lr}
   1492c:	ebffef4e 	bl	1066c <wiringPiSetup@plt>
   14930:	e3500000 	cmp	r0, #0
   14934:	b8bd8010 	poplt	{r4, pc}
   14938:	e59f30d4 	ldr	r3, [pc, #212]	; 14a14 <gpio_driver_init+0xec>
   1493c:	e5930000 	ldr	r0, [r3]
   14940:	ebffffe8 	bl	148e8 <gpio_driver_init_pin>
   14944:	e59f30cc 	ldr	r3, [pc, #204]	; 14a18 <gpio_driver_init+0xf0>
   14948:	e5930000 	ldr	r0, [r3]
   1494c:	ebffffe5 	bl	148e8 <gpio_driver_init_pin>
   14950:	e59f30c4 	ldr	r3, [pc, #196]	; 14a1c <gpio_driver_init+0xf4>
   14954:	e5930000 	ldr	r0, [r3]
   14958:	ebffffe2 	bl	148e8 <gpio_driver_init_pin>
   1495c:	e59f30bc 	ldr	r3, [pc, #188]	; 14a20 <gpio_driver_init+0xf8>
   14960:	e5930000 	ldr	r0, [r3]
   14964:	ebffffdf 	bl	148e8 <gpio_driver_init_pin>
   14968:	e59f30b4 	ldr	r3, [pc, #180]	; 14a24 <gpio_driver_init+0xfc>
   1496c:	e5930000 	ldr	r0, [r3]
   14970:	ebffffdc 	bl	148e8 <gpio_driver_init_pin>
   14974:	e59f30ac 	ldr	r3, [pc, #172]	; 14a28 <gpio_driver_init+0x100>
   14978:	e5930000 	ldr	r0, [r3]
   1497c:	ebffffd9 	bl	148e8 <gpio_driver_init_pin>
   14980:	e59f30a4 	ldr	r3, [pc, #164]	; 14a2c <gpio_driver_init+0x104>
   14984:	e5930000 	ldr	r0, [r3]
   14988:	ebffffd6 	bl	148e8 <gpio_driver_init_pin>
   1498c:	e59f309c 	ldr	r3, [pc, #156]	; 14a30 <gpio_driver_init+0x108>
   14990:	e5930000 	ldr	r0, [r3]
   14994:	ebffffd3 	bl	148e8 <gpio_driver_init_pin>
   14998:	e59f3094 	ldr	r3, [pc, #148]	; 14a34 <gpio_driver_init+0x10c>
   1499c:	e5930000 	ldr	r0, [r3]
   149a0:	ebffffd0 	bl	148e8 <gpio_driver_init_pin>
   149a4:	e59f308c 	ldr	r3, [pc, #140]	; 14a38 <gpio_driver_init+0x110>
   149a8:	e5930000 	ldr	r0, [r3]
   149ac:	ebffffcd 	bl	148e8 <gpio_driver_init_pin>
   149b0:	e59f3084 	ldr	r3, [pc, #132]	; 14a3c <gpio_driver_init+0x114>
   149b4:	e5930000 	ldr	r0, [r3]
   149b8:	ebffffca 	bl	148e8 <gpio_driver_init_pin>
   149bc:	e59f307c 	ldr	r3, [pc, #124]	; 14a40 <gpio_driver_init+0x118>
   149c0:	e5930000 	ldr	r0, [r3]
   149c4:	ebffffc7 	bl	148e8 <gpio_driver_init_pin>
   149c8:	e59f3074 	ldr	r3, [pc, #116]	; 14a44 <gpio_driver_init+0x11c>
   149cc:	e5930000 	ldr	r0, [r3]
   149d0:	ebffffc4 	bl	148e8 <gpio_driver_init_pin>
   149d4:	e59f306c 	ldr	r3, [pc, #108]	; 14a48 <gpio_driver_init+0x120>
   149d8:	e5930000 	ldr	r0, [r3]
   149dc:	ebffffc1 	bl	148e8 <gpio_driver_init_pin>
   149e0:	e59f3064 	ldr	r3, [pc, #100]	; 14a4c <gpio_driver_init+0x124>
   149e4:	e5930000 	ldr	r0, [r3]
   149e8:	ebffffbe 	bl	148e8 <gpio_driver_init_pin>
   149ec:	e59f305c 	ldr	r3, [pc, #92]	; 14a50 <gpio_driver_init+0x128>
   149f0:	e5930000 	ldr	r0, [r3]
   149f4:	ebffffbb 	bl	148e8 <gpio_driver_init_pin>
   149f8:	e59f3054 	ldr	r3, [pc, #84]	; 14a54 <gpio_driver_init+0x12c>
   149fc:	e5930000 	ldr	r0, [r3]
   14a00:	ebffffb8 	bl	148e8 <gpio_driver_init_pin>
   14a04:	e59f304c 	ldr	r3, [pc, #76]	; 14a58 <gpio_driver_init+0x130>
   14a08:	e8bd4010 	pop	{r4, lr}
   14a0c:	e5930000 	ldr	r0, [r3]
   14a10:	eaffffb4 	b	148e8 <gpio_driver_init_pin>
   14a14:	000260f4 	.word	0x000260f4
   14a18:	000260e8 	.word	0x000260e8
   14a1c:	000260e4 	.word	0x000260e4
   14a20:	000260e0 	.word	0x000260e0
   14a24:	000260dc 	.word	0x000260dc
   14a28:	000260d8 	.word	0x000260d8
   14a2c:	000260d4 	.word	0x000260d4
   14a30:	000260c8 	.word	0x000260c8
   14a34:	000260c0 	.word	0x000260c0
   14a38:	000260b8 	.word	0x000260b8
   14a3c:	000260b4 	.word	0x000260b4
   14a40:	000260b0 	.word	0x000260b0
   14a44:	000260ac 	.word	0x000260ac
   14a48:	000260a8 	.word	0x000260a8
   14a4c:	000260a4 	.word	0x000260a4
   14a50:	000260a0 	.word	0x000260a0
   14a54:	0002609c 	.word	0x0002609c
   14a58:	00026098 	.word	0x00026098

00014a5c <gpio_driver_get_level>:
   14a5c:	e92d4010 	push	{r4, lr}
   14a60:	e1a04000 	mov	r4, r0
   14a64:	ebffff3b 	bl	14758 <gpio_driver_get_pin_id>
   14a68:	ebffeee7 	bl	1060c <digitalRead@plt>
   14a6c:	e5d43002 	ldrb	r3, [r4, #2]
   14a70:	e1b033a3 	lsrs	r3, r3, #7
   14a74:	1a000002 	bne	14a84 <gpio_driver_get_level+0x28>
   14a78:	e2900000 	adds	r0, r0, #0
   14a7c:	13a00001 	movne	r0, #1
   14a80:	e8bd8010 	pop	{r4, pc}
   14a84:	e16f0f10 	clz	r0, r0
   14a88:	e1a002a0 	lsr	r0, r0, #5
   14a8c:	e8bd8010 	pop	{r4, pc}

00014a90 <gpio_driver_toggle_level>:
   14a90:	e5d02002 	ldrb	r2, [r0, #2]
   14a94:	e3120008 	tst	r2, #8
   14a98:	012fff1e 	bxeq	lr
   14a9c:	e92d4010 	push	{r4, lr}
   14aa0:	e1a04000 	mov	r4, r0
   14aa4:	ebffffec 	bl	14a5c <gpio_driver_get_level>
   14aa8:	e2501001 	subs	r1, r0, #1
   14aac:	13a01001 	movne	r1, #1
   14ab0:	e1a00004 	mov	r0, r4
   14ab4:	e8bd4010 	pop	{r4, lr}
   14ab8:	eaffff79 	b	148a4 <gpio_driver_set_level>

00014abc <gpio_driver_print_pin_state>:
   14abc:	e12fff1e 	bx	lr

00014ac0 <TEST_TX_BUFFER_init>:
   14ac0:	e59f0000 	ldr	r0, [pc]	; 14ac8 <TEST_TX_BUFFER_init+0x8>
   14ac4:	eafff9e4 	b	1325c <local_msg_buffer_init>
   14ac8:	000261a4 	.word	0x000261a4

00014acc <TEST_TX_BUFFER_bytes_available>:
   14acc:	e92d4010 	push	{r4, lr}
   14ad0:	e59f0008 	ldr	r0, [pc, #8]	; 14ae0 <TEST_TX_BUFFER_bytes_available+0x14>
   14ad4:	ebfffa2e 	bl	13394 <local_msg_buffer_bytes_available>
   14ad8:	e6ef0070 	uxtb	r0, r0
   14adc:	e8bd8010 	pop	{r4, pc}
   14ae0:	000261a4 	.word	0x000261a4

00014ae4 <TEST_TX_BUFFER_bytes_free>:
   14ae4:	e92d4010 	push	{r4, lr}
   14ae8:	e59f0008 	ldr	r0, [pc, #8]	; 14af8 <TEST_TX_BUFFER_bytes_free+0x14>
   14aec:	ebfffa2a 	bl	1339c <local_msg_buffer_bytes_free>
   14af0:	e6ef0070 	uxtb	r0, r0
   14af4:	e8bd8010 	pop	{r4, pc}
   14af8:	000261a4 	.word	0x000261a4

00014afc <TEST_TX_BUFFER_clear_all>:
   14afc:	e59f0000 	ldr	r0, [pc]	; 14b04 <TEST_TX_BUFFER_clear_all+0x8>
   14b00:	eafffa70 	b	134c8 <local_msg_buffer_clear_all>
   14b04:	000261a4 	.word	0x000261a4

00014b08 <TEST_TX_BUFFER_start_write>:
   14b08:	e59f0000 	ldr	r0, [pc]	; 14b10 <TEST_TX_BUFFER_start_write+0x8>
   14b0c:	eafff9d8 	b	13274 <local_msg_buffer_start_write>
   14b10:	000261a4 	.word	0x000261a4

00014b14 <TEST_TX_BUFFER_add_byte>:
   14b14:	e1a01000 	mov	r1, r0
   14b18:	e59f0000 	ldr	r0, [pc]	; 14b20 <TEST_TX_BUFFER_add_byte+0xc>
   14b1c:	eafff9dc 	b	13294 <local_msg_buffer_add_byte>
   14b20:	000261a4 	.word	0x000261a4

00014b24 <TEST_TX_BUFFER_add_word>:
   14b24:	e1a01000 	mov	r1, r0
   14b28:	e59f0000 	ldr	r0, [pc]	; 14b30 <TEST_TX_BUFFER_add_word+0xc>
   14b2c:	eafff9ef 	b	132f0 <local_msg_buffer_add_word>
   14b30:	000261a4 	.word	0x000261a4

00014b34 <TEST_TX_BUFFER_add_long>:
   14b34:	e1a01000 	mov	r1, r0
   14b38:	e59f0000 	ldr	r0, [pc]	; 14b40 <TEST_TX_BUFFER_add_long+0xc>
   14b3c:	eafff9f2 	b	1330c <local_msg_buffer_add_long>
   14b40:	000261a4 	.word	0x000261a4

00014b44 <TEST_TX_BUFFER_add_N_bytes>:
   14b44:	e1a02001 	mov	r2, r1
   14b48:	e1a01000 	mov	r1, r0
   14b4c:	e59f0000 	ldr	r0, [pc]	; 14b54 <TEST_TX_BUFFER_add_N_bytes+0x10>
   14b50:	eafff9fa 	b	13340 <local_msg_buffer_add_N_bytes>
   14b54:	000261a4 	.word	0x000261a4

00014b58 <TEST_TX_BUFFER_stop_write>:
   14b58:	e59f0000 	ldr	r0, [pc]	; 14b60 <TEST_TX_BUFFER_stop_write+0x8>
   14b5c:	eafffa01 	b	13368 <local_msg_buffer_stop_write>
   14b60:	000261a4 	.word	0x000261a4

00014b64 <TEST_TX_BUFFER_start_read>:
   14b64:	e59f0000 	ldr	r0, [pc]	; 14b6c <TEST_TX_BUFFER_start_read+0x8>
   14b68:	eafffa02 	b	13378 <local_msg_buffer_start_read>
   14b6c:	000261a4 	.word	0x000261a4

00014b70 <TEST_TX_BUFFER_get_byte>:
   14b70:	e59f0000 	ldr	r0, [pc]	; 14b78 <TEST_TX_BUFFER_get_byte+0x8>
   14b74:	eafffa0d 	b	133b0 <local_msg_buffer_get_byte>
   14b78:	000261a4 	.word	0x000261a4

00014b7c <TEST_TX_BUFFER_get_word>:
   14b7c:	e59f0000 	ldr	r0, [pc]	; 14b84 <TEST_TX_BUFFER_get_word+0x8>
   14b80:	eafffa23 	b	13414 <local_msg_buffer_get_word>
   14b84:	000261a4 	.word	0x000261a4

00014b88 <TEST_TX_BUFFER_get_long>:
   14b88:	e59f0000 	ldr	r0, [pc]	; 14b90 <TEST_TX_BUFFER_get_long+0x8>
   14b8c:	eafffa29 	b	13438 <local_msg_buffer_get_long>
   14b90:	000261a4 	.word	0x000261a4

00014b94 <TEST_TX_BUFFER_get_N_bytes>:
   14b94:	e1a02001 	mov	r2, r1
   14b98:	e1a01000 	mov	r1, r0
   14b9c:	e59f0000 	ldr	r0, [pc]	; 14ba4 <TEST_TX_BUFFER_get_N_bytes+0x10>
   14ba0:	eafffa34 	b	13478 <local_msg_buffer_get_N_bytes>
   14ba4:	000261a4 	.word	0x000261a4

00014ba8 <TEST_TX_BUFFER_stop_read>:
   14ba8:	e59f0000 	ldr	r0, [pc]	; 14bb0 <TEST_TX_BUFFER_stop_read+0x8>
   14bac:	eafffa41 	b	134b8 <local_msg_buffer_stop_read>
   14bb0:	000261a4 	.word	0x000261a4

00014bb4 <TEST_TX_BUFFER_debug_print>:
   14bb4:	e59f0000 	ldr	r0, [pc]	; 14bbc <TEST_TX_BUFFER_debug_print+0x8>
   14bb8:	eafffa47 	b	134dc <local_msg_buffer_debug_print>
   14bbc:	000261a4 	.word	0x000261a4

00014bc0 <TEST_TX_BUFFER_size>:
   14bc0:	e3a00080 	mov	r0, #128	; 0x80
   14bc4:	e12fff1e 	bx	lr

00014bc8 <TEST_RX_BUFFER_init>:
   14bc8:	e59f0000 	ldr	r0, [pc]	; 14bd0 <TEST_RX_BUFFER_init+0x8>
   14bcc:	eafff9a2 	b	1325c <local_msg_buffer_init>
   14bd0:	000261b4 	.word	0x000261b4

00014bd4 <TEST_RX_BUFFER_bytes_available>:
   14bd4:	e92d4010 	push	{r4, lr}
   14bd8:	e59f0008 	ldr	r0, [pc, #8]	; 14be8 <TEST_RX_BUFFER_bytes_available+0x14>
   14bdc:	ebfff9ec 	bl	13394 <local_msg_buffer_bytes_available>
   14be0:	e6ef0070 	uxtb	r0, r0
   14be4:	e8bd8010 	pop	{r4, pc}
   14be8:	000261b4 	.word	0x000261b4

00014bec <TEST_RX_BUFFER_bytes_free>:
   14bec:	e92d4010 	push	{r4, lr}
   14bf0:	e59f0008 	ldr	r0, [pc, #8]	; 14c00 <TEST_RX_BUFFER_bytes_free+0x14>
   14bf4:	ebfff9e8 	bl	1339c <local_msg_buffer_bytes_free>
   14bf8:	e6ef0070 	uxtb	r0, r0
   14bfc:	e8bd8010 	pop	{r4, pc}
   14c00:	000261b4 	.word	0x000261b4

00014c04 <TEST_RX_BUFFER_clear_all>:
   14c04:	e59f0000 	ldr	r0, [pc]	; 14c0c <TEST_RX_BUFFER_clear_all+0x8>
   14c08:	eafffa2e 	b	134c8 <local_msg_buffer_clear_all>
   14c0c:	000261b4 	.word	0x000261b4

00014c10 <TEST_RX_BUFFER_start_write>:
   14c10:	e59f0000 	ldr	r0, [pc]	; 14c18 <TEST_RX_BUFFER_start_write+0x8>
   14c14:	eafff996 	b	13274 <local_msg_buffer_start_write>
   14c18:	000261b4 	.word	0x000261b4

00014c1c <TEST_RX_BUFFER_add_byte>:
   14c1c:	e1a01000 	mov	r1, r0
   14c20:	e59f0000 	ldr	r0, [pc]	; 14c28 <TEST_RX_BUFFER_add_byte+0xc>
   14c24:	eafff99a 	b	13294 <local_msg_buffer_add_byte>
   14c28:	000261b4 	.word	0x000261b4

00014c2c <TEST_RX_BUFFER_add_word>:
   14c2c:	e1a01000 	mov	r1, r0
   14c30:	e59f0000 	ldr	r0, [pc]	; 14c38 <TEST_RX_BUFFER_add_word+0xc>
   14c34:	eafff9ad 	b	132f0 <local_msg_buffer_add_word>
   14c38:	000261b4 	.word	0x000261b4

00014c3c <TEST_RX_BUFFER_add_long>:
   14c3c:	e1a01000 	mov	r1, r0
   14c40:	e59f0000 	ldr	r0, [pc]	; 14c48 <TEST_RX_BUFFER_add_long+0xc>
   14c44:	eafff9b0 	b	1330c <local_msg_buffer_add_long>
   14c48:	000261b4 	.word	0x000261b4

00014c4c <TEST_RX_BUFFER_add_N_bytes>:
   14c4c:	e1a02001 	mov	r2, r1
   14c50:	e1a01000 	mov	r1, r0
   14c54:	e59f0000 	ldr	r0, [pc]	; 14c5c <TEST_RX_BUFFER_add_N_bytes+0x10>
   14c58:	eafff9b8 	b	13340 <local_msg_buffer_add_N_bytes>
   14c5c:	000261b4 	.word	0x000261b4

00014c60 <TEST_RX_BUFFER_stop_write>:
   14c60:	e59f0000 	ldr	r0, [pc]	; 14c68 <TEST_RX_BUFFER_stop_write+0x8>
   14c64:	eafff9bf 	b	13368 <local_msg_buffer_stop_write>
   14c68:	000261b4 	.word	0x000261b4

00014c6c <TEST_RX_BUFFER_start_read>:
   14c6c:	e59f0000 	ldr	r0, [pc]	; 14c74 <TEST_RX_BUFFER_start_read+0x8>
   14c70:	eafff9c0 	b	13378 <local_msg_buffer_start_read>
   14c74:	000261b4 	.word	0x000261b4

00014c78 <TEST_RX_BUFFER_get_byte>:
   14c78:	e59f0000 	ldr	r0, [pc]	; 14c80 <TEST_RX_BUFFER_get_byte+0x8>
   14c7c:	eafff9cb 	b	133b0 <local_msg_buffer_get_byte>
   14c80:	000261b4 	.word	0x000261b4

00014c84 <TEST_RX_BUFFER_get_word>:
   14c84:	e59f0000 	ldr	r0, [pc]	; 14c8c <TEST_RX_BUFFER_get_word+0x8>
   14c88:	eafff9e1 	b	13414 <local_msg_buffer_get_word>
   14c8c:	000261b4 	.word	0x000261b4

00014c90 <TEST_RX_BUFFER_get_long>:
   14c90:	e59f0000 	ldr	r0, [pc]	; 14c98 <TEST_RX_BUFFER_get_long+0x8>
   14c94:	eafff9e7 	b	13438 <local_msg_buffer_get_long>
   14c98:	000261b4 	.word	0x000261b4

00014c9c <TEST_RX_BUFFER_get_N_bytes>:
   14c9c:	e1a02001 	mov	r2, r1
   14ca0:	e1a01000 	mov	r1, r0
   14ca4:	e59f0000 	ldr	r0, [pc]	; 14cac <TEST_RX_BUFFER_get_N_bytes+0x10>
   14ca8:	eafff9f2 	b	13478 <local_msg_buffer_get_N_bytes>
   14cac:	000261b4 	.word	0x000261b4

00014cb0 <TEST_RX_BUFFER_stop_read>:
   14cb0:	e59f0000 	ldr	r0, [pc]	; 14cb8 <TEST_RX_BUFFER_stop_read+0x8>
   14cb4:	eafff9ff 	b	134b8 <local_msg_buffer_stop_read>
   14cb8:	000261b4 	.word	0x000261b4

00014cbc <TEST_RX_BUFFER_debug_print>:
   14cbc:	e59f0000 	ldr	r0, [pc]	; 14cc4 <TEST_RX_BUFFER_debug_print+0x8>
   14cc0:	eafffa05 	b	134dc <local_msg_buffer_debug_print>
   14cc4:	000261b4 	.word	0x000261b4

00014cc8 <TEST_RX_BUFFER_size>:
   14cc8:	e3a00080 	mov	r0, #128	; 0x80
   14ccc:	e12fff1e 	bx	lr

00014cd0 <SIGNAL_TEST_DRIVER_START_RX_init>:
   14cd0:	e59f0000 	ldr	r0, [pc]	; 14cd8 <SIGNAL_TEST_DRIVER_START_RX_init+0x8>
   14cd4:	eafffa01 	b	134e0 <signal_slot_init>
   14cd8:	000262f0 	.word	0x000262f0

00014cdc <SIGNAL_TEST_DRIVER_START_RX_send>:
   14cdc:	e1a01000 	mov	r1, r0
   14ce0:	e59f0000 	ldr	r0, [pc]	; 14ce8 <SIGNAL_TEST_DRIVER_START_RX_send+0xc>
   14ce4:	eafff9fe 	b	134e4 <signal_slot_send>
   14ce8:	000262f0 	.word	0x000262f0

00014cec <SIGNAL_TEST_DRIVER_START_RX_set_timeout>:
   14cec:	e59f3004 	ldr	r3, [pc, #4]	; 14cf8 <SIGNAL_TEST_DRIVER_START_RX_set_timeout+0xc>
   14cf0:	e1c300b2 	strh	r0, [r3, #2]
   14cf4:	e12fff1e 	bx	lr
   14cf8:	000262f0 	.word	0x000262f0

00014cfc <SIGNAL_TEST_DRIVER_START_RX_connect>:
   14cfc:	e1a01000 	mov	r1, r0
   14d00:	e59f0000 	ldr	r0, [pc]	; 14d08 <SIGNAL_TEST_DRIVER_START_RX_connect+0xc>
   14d04:	eafffa0c 	b	1353c <signal_slot_connect>
   14d08:	000262f0 	.word	0x000262f0

00014d0c <SIGNAL_TEST_DRIVER_START_TX_init>:
   14d0c:	e59f0000 	ldr	r0, [pc]	; 14d14 <SIGNAL_TEST_DRIVER_START_TX_init+0x8>
   14d10:	eafff9f2 	b	134e0 <signal_slot_init>
   14d14:	000262f8 	.word	0x000262f8

00014d18 <SIGNAL_TEST_DRIVER_START_TX_send>:
   14d18:	e1a01000 	mov	r1, r0
   14d1c:	e59f0000 	ldr	r0, [pc]	; 14d24 <SIGNAL_TEST_DRIVER_START_TX_send+0xc>
   14d20:	eafff9ef 	b	134e4 <signal_slot_send>
   14d24:	000262f8 	.word	0x000262f8

00014d28 <SIGNAL_TEST_DRIVER_START_TX_set_timeout>:
   14d28:	e59f3004 	ldr	r3, [pc, #4]	; 14d34 <SIGNAL_TEST_DRIVER_START_TX_set_timeout+0xc>
   14d2c:	e1c300ba 	strh	r0, [r3, #10]
   14d30:	e12fff1e 	bx	lr
   14d34:	000262f0 	.word	0x000262f0

00014d38 <SIGNAL_TEST_DRIVER_START_TX_connect>:
   14d38:	e1a01000 	mov	r1, r0
   14d3c:	e59f0000 	ldr	r0, [pc]	; 14d44 <SIGNAL_TEST_DRIVER_START_TX_connect+0xc>
   14d40:	eafff9fd 	b	1353c <signal_slot_connect>
   14d44:	000262f8 	.word	0x000262f8

00014d48 <test_driver_initialize>:
   14d48:	e92d4010 	push	{r4, lr}
   14d4c:	ebffff9d 	bl	14bc8 <TEST_RX_BUFFER_init>
   14d50:	ebffff5a 	bl	14ac0 <TEST_TX_BUFFER_init>
   14d54:	ebffffdd 	bl	14cd0 <SIGNAL_TEST_DRIVER_START_RX_init>
   14d58:	e8bd4010 	pop	{r4, lr}
   14d5c:	eaffffea 	b	14d0c <SIGNAL_TEST_DRIVER_START_TX_init>

00014d60 <test_driver_configure>:
   14d60:	e12fff1e 	bx	lr

00014d64 <test_driver_power_off>:
   14d64:	e12fff1e 	bx	lr

00014d68 <test_driver_bytes_available>:
   14d68:	eaffff99 	b	14bd4 <TEST_RX_BUFFER_bytes_available>

00014d6c <test_driver_get_N_bytes>:
   14d6c:	e92d4070 	push	{r4, r5, r6, lr}
   14d70:	e1a04000 	mov	r4, r0
   14d74:	e1a05001 	mov	r5, r1
   14d78:	ebffffbb 	bl	14c6c <TEST_RX_BUFFER_start_read>
   14d7c:	e1a01005 	mov	r1, r5
   14d80:	e1a00004 	mov	r0, r4
   14d84:	ebffffc4 	bl	14c9c <TEST_RX_BUFFER_get_N_bytes>
   14d88:	e1a04000 	mov	r4, r0
   14d8c:	ebffffc7 	bl	14cb0 <TEST_RX_BUFFER_stop_read>
   14d90:	e6ef0074 	uxtb	r0, r4
   14d94:	e8bd8070 	pop	{r4, r5, r6, pc}

00014d98 <test_driver_set_N_bytes>:
   14d98:	e3500080 	cmp	r0, #128	; 0x80
   14d9c:	e92d4070 	push	{r4, r5, r6, lr}
   14da0:	31a04000 	movcc	r4, r0
   14da4:	23a04080 	movcs	r4, #128	; 0x80
   14da8:	e1a05001 	mov	r5, r1
   14dac:	ebffff55 	bl	14b08 <TEST_TX_BUFFER_start_write>
   14db0:	e1a00004 	mov	r0, r4
   14db4:	e1a01005 	mov	r1, r5
   14db8:	ebffff61 	bl	14b44 <TEST_TX_BUFFER_add_N_bytes>
   14dbc:	ebffff65 	bl	14b58 <TEST_TX_BUFFER_stop_write>
   14dc0:	e1a00004 	mov	r0, r4
   14dc4:	e8bd8070 	pop	{r4, r5, r6, pc}

00014dc8 <test_driver_is_ready_for_tx>:
   14dc8:	e59f300c 	ldr	r3, [pc, #12]	; 14ddc <test_driver_is_ready_for_tx+0x14>
   14dcc:	e5d30011 	ldrb	r0, [r3, #17]
   14dd0:	e16f0f10 	clz	r0, r0
   14dd4:	e1a002a0 	lsr	r0, r0, #5
   14dd8:	e12fff1e 	bx	lr
   14ddc:	000262f0 	.word	0x000262f0

00014de0 <test_driver_is_ready_for_rx>:
   14de0:	e59f300c 	ldr	r3, [pc, #12]	; 14df4 <test_driver_is_ready_for_rx+0x14>
   14de4:	e5d30010 	ldrb	r0, [r3, #16]
   14de8:	e16f0f10 	clz	r0, r0
   14dec:	e1a002a0 	lsr	r0, r0, #5
   14df0:	e12fff1e 	bx	lr
   14df4:	000262f0 	.word	0x000262f0

00014df8 <test_driver_start_rx>:
   14df8:	e92d4007 	push	{r0, r1, r2, lr}
   14dfc:	e1cd00b6 	strh	r0, [sp, #6]
   14e00:	ebffff82 	bl	14c10 <TEST_RX_BUFFER_start_write>
   14e04:	e59f3014 	ldr	r3, [pc, #20]	; 14e20 <test_driver_start_rx+0x28>
   14e08:	e3a02001 	mov	r2, #1
   14e0c:	e28d0006 	add	r0, sp, #6
   14e10:	e5c32010 	strb	r2, [r3, #16]
   14e14:	ebffffb0 	bl	14cdc <SIGNAL_TEST_DRIVER_START_RX_send>
   14e18:	e28dd00c 	add	sp, sp, #12
   14e1c:	e49df004 	pop	{pc}		; (ldr pc, [sp], #4)
   14e20:	000262f0 	.word	0x000262f0

00014e24 <test_driver_wait_for_rx>:
   14e24:	e92d4070 	push	{r4, r5, r6, lr}
   14e28:	e1a05000 	mov	r5, r0
   14e2c:	e1a06001 	mov	r6, r1
   14e30:	ebfffac2 	bl	13940 <time_mgmnt_gettime_u16>
   14e34:	e59f3028 	ldr	r3, [pc, #40]	; 14e64 <test_driver_wait_for_rx+0x40>
   14e38:	e1a04003 	mov	r4, r3
   14e3c:	e1c301b2 	strh	r0, [r3, #18]
   14e40:	ebffff63 	bl	14bd4 <TEST_RX_BUFFER_bytes_available>
   14e44:	e1500005 	cmp	r0, r5
   14e48:	28bd8070 	popcs	{r4, r5, r6, pc}
   14e4c:	e1a01006 	mov	r1, r6
   14e50:	e1d401b2 	ldrh	r0, [r4, #18]
   14e54:	ebfffabc 	bl	1394c <time_mgmnt_istimeup_u16>
   14e58:	e3500000 	cmp	r0, #0
   14e5c:	0afffff7 	beq	14e40 <test_driver_wait_for_rx+0x1c>
   14e60:	e8bd8070 	pop	{r4, r5, r6, pc}
   14e64:	000262f0 	.word	0x000262f0

00014e68 <test_driver_stop_rx>:
   14e68:	e59f3008 	ldr	r3, [pc, #8]	; 14e78 <test_driver_stop_rx+0x10>
   14e6c:	e3a02000 	mov	r2, #0
   14e70:	e5c32010 	strb	r2, [r3, #16]
   14e74:	eaffff79 	b	14c60 <TEST_RX_BUFFER_stop_write>
   14e78:	000262f0 	.word	0x000262f0

00014e7c <test_driver_start_tx>:
   14e7c:	e92d4007 	push	{r0, r1, r2, lr}
   14e80:	ebffff11 	bl	14acc <TEST_TX_BUFFER_bytes_available>
   14e84:	e3500000 	cmp	r0, #0
   14e88:	e5cd0007 	strb	r0, [sp, #7]
   14e8c:	0a000005 	beq	14ea8 <test_driver_start_tx+0x2c>
   14e90:	e59f3018 	ldr	r3, [pc, #24]	; 14eb0 <test_driver_start_tx+0x34>
   14e94:	e3a02001 	mov	r2, #1
   14e98:	e5c32011 	strb	r2, [r3, #17]
   14e9c:	ebffff30 	bl	14b64 <TEST_TX_BUFFER_start_read>
   14ea0:	e28d0007 	add	r0, sp, #7
   14ea4:	ebffff9b 	bl	14d18 <SIGNAL_TEST_DRIVER_START_TX_send>
   14ea8:	e28dd00c 	add	sp, sp, #12
   14eac:	e49df004 	pop	{pc}		; (ldr pc, [sp], #4)
   14eb0:	000262f0 	.word	0x000262f0

00014eb4 <test_driver_wait_for_tx>:
   14eb4:	e92d4070 	push	{r4, r5, r6, lr}
   14eb8:	e1a05001 	mov	r5, r1
   14ebc:	ebfffa9f 	bl	13940 <time_mgmnt_gettime_u16>
   14ec0:	e59f4024 	ldr	r4, [pc, #36]	; 14eec <test_driver_wait_for_tx+0x38>
   14ec4:	e1c401b2 	strh	r0, [r4, #18]
   14ec8:	e1a01005 	mov	r1, r5
   14ecc:	e1d401b2 	ldrh	r0, [r4, #18]
   14ed0:	ebfffa9d 	bl	1394c <time_mgmnt_istimeup_u16>
   14ed4:	e3500000 	cmp	r0, #0
   14ed8:	0afffffa 	beq	14ec8 <test_driver_wait_for_tx+0x14>
   14edc:	ebfffefa 	bl	14acc <TEST_TX_BUFFER_bytes_available>
   14ee0:	e3500000 	cmp	r0, #0
   14ee4:	05c40011 	strbeq	r0, [r4, #17]
   14ee8:	e8bd8070 	pop	{r4, r5, r6, pc}
   14eec:	000262f0 	.word	0x000262f0

00014ef0 <test_driver_stop_tx>:
   14ef0:	e92d4010 	push	{r4, lr}
   14ef4:	ebffff2b 	bl	14ba8 <TEST_TX_BUFFER_stop_read>
   14ef8:	e59f3008 	ldr	r3, [pc, #8]	; 14f08 <test_driver_stop_tx+0x18>
   14efc:	e3a02000 	mov	r2, #0
   14f00:	e5c32011 	strb	r2, [r3, #17]
   14f04:	e8bd8010 	pop	{r4, pc}
   14f08:	000262f0 	.word	0x000262f0

00014f0c <test_driver_clear_rx_buffer>:
   14f0c:	eaffff3c 	b	14c04 <TEST_RX_BUFFER_clear_all>

00014f10 <test_driver_clear_tx_buffer>:
   14f10:	eafffef9 	b	14afc <TEST_TX_BUFFER_clear_all>

00014f14 <test_driver_set_address>:
   14f14:	e12fff1e 	bx	lr

00014f18 <test_driver_mutex_request>:
   14f18:	e92d4010 	push	{r4, lr}
   14f1c:	e59f001c 	ldr	r0, [pc, #28]	; 14f40 <test_driver_mutex_request+0x28>
   14f20:	ebfff8c9 	bl	1324c <mutex_is_requested>
   14f24:	e3500000 	cmp	r0, #0
   14f28:	1a000002 	bne	14f38 <test_driver_mutex_request+0x20>
   14f2c:	e59f000c 	ldr	r0, [pc, #12]	; 14f40 <test_driver_mutex_request+0x28>
   14f30:	e8bd4010 	pop	{r4, lr}
   14f34:	eafff8aa 	b	131e4 <mutex_request>
   14f38:	e3a00000 	mov	r0, #0
   14f3c:	e8bd8010 	pop	{r4, pc}
   14f40:	00026304 	.word	0x00026304

00014f44 <test_driver_mutex_release>:
   14f44:	e1a01000 	mov	r1, r0
   14f48:	e59f0000 	ldr	r0, [pc]	; 14f50 <test_driver_mutex_release+0xc>
   14f4c:	eafff8b0 	b	13214 <mutex_release>
   14f50:	00026304 	.word	0x00026304

00014f54 <test_driver_set_rx_bytes>:
   14f54:	e92d4070 	push	{r4, r5, r6, lr}
   14f58:	e1a04000 	mov	r4, r0
   14f5c:	e1a05001 	mov	r5, r1
   14f60:	ebffff2a 	bl	14c10 <TEST_RX_BUFFER_start_write>
   14f64:	e3540080 	cmp	r4, #128	; 0x80
   14f68:	e1a01005 	mov	r1, r5
   14f6c:	31a00004 	movcc	r0, r4
   14f70:	23a00080 	movcs	r0, #128	; 0x80
   14f74:	ebffff34 	bl	14c4c <TEST_RX_BUFFER_add_N_bytes>
   14f78:	e8bd4070 	pop	{r4, r5, r6, lr}
   14f7c:	eaffff37 	b	14c60 <TEST_RX_BUFFER_stop_write>

00014f80 <test_driver_get_tx_bytes>:
   14f80:	e92d4070 	push	{r4, r5, r6, lr}
   14f84:	e1a04000 	mov	r4, r0
   14f88:	e1a05001 	mov	r5, r1
   14f8c:	ebfffef4 	bl	14b64 <TEST_TX_BUFFER_start_read>
   14f90:	e1a01005 	mov	r1, r5
   14f94:	e1a00004 	mov	r0, r4
   14f98:	ebfffefd 	bl	14b94 <TEST_TX_BUFFER_get_N_bytes>
   14f9c:	e1a04000 	mov	r4, r0
   14fa0:	ebffff00 	bl	14ba8 <TEST_TX_BUFFER_stop_read>
   14fa4:	ebfffec8 	bl	14acc <TEST_TX_BUFFER_bytes_available>
   14fa8:	e3500000 	cmp	r0, #0
   14fac:	1a000000 	bne	14fb4 <test_driver_get_tx_bytes+0x34>
   14fb0:	ebffffce 	bl	14ef0 <test_driver_stop_tx>
   14fb4:	e6ef0074 	uxtb	r0, r4
   14fb8:	e8bd8070 	pop	{r4, r5, r6, pc}

00014fbc <test_driver_get_tx_bytes_num_available>:
   14fbc:	eafffec2 	b	14acc <TEST_TX_BUFFER_bytes_available>

00014fc0 <__libc_csu_init>:
   14fc0:	e92d47f0 	push	{r4, r5, r6, r7, r8, r9, sl, lr}
   14fc4:	e1a07000 	mov	r7, r0
   14fc8:	e59f6048 	ldr	r6, [pc, #72]	; 15018 <__libc_csu_init+0x58>
   14fcc:	e59f5048 	ldr	r5, [pc, #72]	; 1501c <__libc_csu_init+0x5c>
   14fd0:	e08f6006 	add	r6, pc, r6
   14fd4:	e08f5005 	add	r5, pc, r5
   14fd8:	e0466005 	sub	r6, r6, r5
   14fdc:	e1a08001 	mov	r8, r1
   14fe0:	e1a09002 	mov	r9, r2
   14fe4:	ebffed7d 	bl	105e0 <_init>
   14fe8:	e1b06146 	asrs	r6, r6, #2
   14fec:	08bd87f0 	popeq	{r4, r5, r6, r7, r8, r9, sl, pc}
   14ff0:	e3a04000 	mov	r4, #0
   14ff4:	e2844001 	add	r4, r4, #1
   14ff8:	e4953004 	ldr	r3, [r5], #4
   14ffc:	e1a02009 	mov	r2, r9
   15000:	e1a01008 	mov	r1, r8
   15004:	e1a00007 	mov	r0, r7
   15008:	e12fff33 	blx	r3
   1500c:	e1560004 	cmp	r6, r4
   15010:	1afffff7 	bne	14ff4 <__libc_csu_init+0x34>
   15014:	e8bd87f0 	pop	{r4, r5, r6, r7, r8, r9, sl, pc}
   15018:	00010f2c 	.word	0x00010f2c
   1501c:	00010f24 	.word	0x00010f24

00015020 <__libc_csu_fini>:
   15020:	e12fff1e 	bx	lr

Disassembly of section .fini:

00015024 <_fini>:
   15024:	e92d4008 	push	{r3, lr}
   15028:	e8bd8008 	pop	{r3, pc}
